
/home/xg/ysyx-workbench/am-kernels/benchmarks/dhrystone/build/dhrystone-riscv64-npc.elf：     文件格式 elf64-littleriscv


Disassembly of section .text:

0000000080000000 <_start>:
    80000000:	00000413          	li	s0,0
    80000004:	0000d117          	auipc	sp,0xd
    80000008:	ffc10113          	addi	sp,sp,-4 # 8000d000 <_end>
    8000000c:	311000ef          	jal	ra,80000b1c <_trm_init>

0000000080000010 <Proc_6>:
    80000010:	00200713          	li	a4,2
    80000014:	04e50263          	beq	a0,a4,80000058 <Proc_6+0x48>
    80000018:	00300793          	li	a5,3
    8000001c:	00f5a023          	sw	a5,0(a1)
    80000020:	00100793          	li	a5,1
    80000024:	00f50c63          	beq	a0,a5,8000003c <Proc_6+0x2c>
    80000028:	02a7f263          	bgeu	a5,a0,8000004c <Proc_6+0x3c>
    8000002c:	00400793          	li	a5,4
    80000030:	02f51263          	bne	a0,a5,80000054 <Proc_6+0x44>
    80000034:	00e5a023          	sw	a4,0(a1)
    80000038:	00008067          	ret
    8000003c:	00005717          	auipc	a4,0x5
    80000040:	8ac72703          	lw	a4,-1876(a4) # 800048e8 <Int_Glob>
    80000044:	06400793          	li	a5,100
    80000048:	fee7d8e3          	bge	a5,a4,80000038 <Proc_6+0x28>
    8000004c:	0005a023          	sw	zero,0(a1)
    80000050:	00008067          	ret
    80000054:	00008067          	ret
    80000058:	00100793          	li	a5,1
    8000005c:	00f5a023          	sw	a5,0(a1)
    80000060:	00008067          	ret

0000000080000064 <Proc_1>:
    80000064:	00005717          	auipc	a4,0x5
    80000068:	89470713          	addi	a4,a4,-1900 # 800048f8 <Ptr_Glob>
    8000006c:	00073783          	ld	a5,0(a4)
    80000070:	fe010113          	addi	sp,sp,-32
    80000074:	00813823          	sd	s0,16(sp)
    80000078:	0007b603          	ld	a2,0(a5)
    8000007c:	00053403          	ld	s0,0(a0)
    80000080:	0307b683          	ld	a3,48(a5)
    80000084:	0087be03          	ld	t3,8(a5)
    80000088:	0107b303          	ld	t1,16(a5)
    8000008c:	0187b883          	ld	a7,24(a5)
    80000090:	0207b803          	ld	a6,32(a5)
    80000094:	0287b583          	ld	a1,40(a5)
    80000098:	00913423          	sd	s1,8(sp)
    8000009c:	00113c23          	sd	ra,24(sp)
    800000a0:	00c43023          	sd	a2,0(s0)
    800000a4:	00053603          	ld	a2,0(a0)
    800000a8:	01c43423          	sd	t3,8(s0)
    800000ac:	00643823          	sd	t1,16(s0)
    800000b0:	02d43823          	sd	a3,48(s0)
    800000b4:	01143c23          	sd	a7,24(s0)
    800000b8:	03043023          	sd	a6,32(s0)
    800000bc:	02b43423          	sd	a1,40(s0)
    800000c0:	00500693          	li	a3,5
    800000c4:	00d52823          	sw	a3,16(a0)
    800000c8:	00c43023          	sd	a2,0(s0)
    800000cc:	0007b483          	ld	s1,0(a5)
    800000d0:	00005797          	auipc	a5,0x5
    800000d4:	8187a783          	lw	a5,-2024(a5) # 800048e8 <Int_Glob>
    800000d8:	00c7879b          	addiw	a5,a5,12
    800000dc:	00943023          	sd	s1,0(s0)
    800000e0:	00073703          	ld	a4,0(a4)
    800000e4:	00d42823          	sw	a3,16(s0)
    800000e8:	00f72823          	sw	a5,16(a4)
    800000ec:	00842783          	lw	a5,8(s0)
    800000f0:	04078a63          	beqz	a5,80000144 <Proc_1+0xe0>
    800000f4:	00053783          	ld	a5,0(a0)
    800000f8:	01813083          	ld	ra,24(sp)
    800000fc:	01013403          	ld	s0,16(sp)
    80000100:	0007b883          	ld	a7,0(a5)
    80000104:	0087b803          	ld	a6,8(a5)
    80000108:	0107b583          	ld	a1,16(a5)
    8000010c:	0187b603          	ld	a2,24(a5)
    80000110:	0207b683          	ld	a3,32(a5)
    80000114:	0287b703          	ld	a4,40(a5)
    80000118:	0307b783          	ld	a5,48(a5)
    8000011c:	01153023          	sd	a7,0(a0)
    80000120:	01053423          	sd	a6,8(a0)
    80000124:	00b53823          	sd	a1,16(a0)
    80000128:	00c53c23          	sd	a2,24(a0)
    8000012c:	02d53023          	sd	a3,32(a0)
    80000130:	02e53423          	sd	a4,40(a0)
    80000134:	02f53823          	sd	a5,48(a0)
    80000138:	00813483          	ld	s1,8(sp)
    8000013c:	02010113          	addi	sp,sp,32
    80000140:	00008067          	ret
    80000144:	00c52503          	lw	a0,12(a0)
    80000148:	00600793          	li	a5,6
    8000014c:	00f42823          	sw	a5,16(s0)
    80000150:	00c40593          	addi	a1,s0,12
    80000154:	ebdff0ef          	jal	ra,80000010 <Proc_6>
    80000158:	01200793          	li	a5,18
    8000015c:	00943023          	sd	s1,0(s0)
    80000160:	01813083          	ld	ra,24(sp)
    80000164:	00f42823          	sw	a5,16(s0)
    80000168:	01013403          	ld	s0,16(sp)
    8000016c:	00813483          	ld	s1,8(sp)
    80000170:	02010113          	addi	sp,sp,32
    80000174:	00008067          	ret

0000000080000178 <main>:
    80000178:	f2010113          	addi	sp,sp,-224
    8000017c:	09713c23          	sd	s7,152(sp)
    80000180:	0c113c23          	sd	ra,216(sp)
    80000184:	0c813823          	sd	s0,208(sp)
    80000188:	0c913423          	sd	s1,200(sp)
    8000018c:	0d213023          	sd	s2,192(sp)
    80000190:	0b313c23          	sd	s3,184(sp)
    80000194:	0b413823          	sd	s4,176(sp)
    80000198:	0b513423          	sd	s5,168(sp)
    8000019c:	0b613023          	sd	s6,160(sp)
    800001a0:	09813823          	sd	s8,144(sp)
    800001a4:	09913423          	sd	s9,136(sp)
    800001a8:	09a13023          	sd	s10,128(sp)
    800001ac:	07b13c23          	sd	s11,120(sp)
    800001b0:	219000ef          	jal	ra,80000bc8 <ioe_init>
    800001b4:	00001697          	auipc	a3,0x1
    800001b8:	72c68693          	addi	a3,a3,1836 # 800018e0 <free_mem>
    800001bc:	0006b783          	ld	a5,0(a3)
    800001c0:	00000b93          	li	s7,0
    800001c4:	0037f713          	andi	a4,a5,3
    800001c8:	00070c63          	beqz	a4,800001e0 <main+0x68>
    800001cc:	00178713          	addi	a4,a5,1
    800001d0:	00377613          	andi	a2,a4,3
    800001d4:	00070793          	mv	a5,a4
    800001d8:	00170713          	addi	a4,a4,1
    800001dc:	fe061ae3          	bnez	a2,800001d0 <main+0x58>
    800001e0:	00004717          	auipc	a4,0x4
    800001e4:	71070713          	addi	a4,a4,1808 # 800048f0 <Next_Ptr_Glob>
    800001e8:	00f73023          	sd	a5,0(a4)
    800001ec:	0037f713          	andi	a4,a5,3
    800001f0:	03878513          	addi	a0,a5,56
    800001f4:	00070c63          	beqz	a4,8000020c <main+0x94>
    800001f8:	03978713          	addi	a4,a5,57
    800001fc:	00377613          	andi	a2,a4,3
    80000200:	00070513          	mv	a0,a4
    80000204:	00170713          	addi	a4,a4,1
    80000208:	fe061ae3          	bnez	a2,800001fc <main+0x84>
    8000020c:	00004c97          	auipc	s9,0x4
    80000210:	6ecc8c93          	addi	s9,s9,1772 # 800048f8 <Ptr_Glob>
    80000214:	00acb023          	sd	a0,0(s9)
    80000218:	00f53023          	sd	a5,0(a0)
    8000021c:	00100793          	li	a5,1
    80000220:	02179793          	slli	a5,a5,0x21
    80000224:	00f53423          	sd	a5,8(a0)
    80000228:	02800793          	li	a5,40
    8000022c:	03850713          	addi	a4,a0,56
    80000230:	00f52823          	sw	a5,16(a0)
    80000234:	00001597          	auipc	a1,0x1
    80000238:	00c58593          	addi	a1,a1,12 # 80001240 <_etext+0x14>
    8000023c:	01450513          	addi	a0,a0,20
    80000240:	00e6b023          	sd	a4,0(a3)
    80000244:	721000ef          	jal	ra,80001164 <strcpy>
    80000248:	00001597          	auipc	a1,0x1
    8000024c:	01858593          	addi	a1,a1,24 # 80001260 <_etext+0x34>
    80000250:	03010513          	addi	a0,sp,48
    80000254:	711000ef          	jal	ra,80001164 <strcpy>
    80000258:	00a00793          	li	a5,10
    8000025c:	00002417          	auipc	s0,0x2
    80000260:	b5c40413          	addi	s0,s0,-1188 # 80001db8 <Arr_2_Glob>
    80000264:	00001597          	auipc	a1,0x1
    80000268:	01c58593          	addi	a1,a1,28 # 80001280 <_etext+0x54>
    8000026c:	64f42e23          	sw	a5,1628(s0)
    80000270:	00001517          	auipc	a0,0x1
    80000274:	02050513          	addi	a0,a0,32 # 80001290 <_etext+0x64>
    80000278:	315000ef          	jal	ra,80000d8c <printf>
    8000027c:	0007a7b7          	lui	a5,0x7a
    80000280:	12078593          	addi	a1,a5,288 # 7a120 <_entry_offset+0x7a120>
    80000284:	00001517          	auipc	a0,0x1
    80000288:	03450513          	addi	a0,a0,52 # 800012b8 <_etext+0x8c>
    8000028c:	00004797          	auipc	a5,0x4
    80000290:	6407a623          	sw	zero,1612(a5) # 800048d8 <Done>
    80000294:	2f9000ef          	jal	ra,80000d8c <printf>
    80000298:	05010593          	addi	a1,sp,80
    8000029c:	00600513          	li	a0,6
    800002a0:	17d000ef          	jal	ra,80000c1c <ioe_read>
    800002a4:	05013783          	ld	a5,80(sp)
    800002a8:	3e800713          	li	a4,1000
    800002ac:	00700d93          	li	s11,7
    800002b0:	02e7d7b3          	divu	a5,a5,a4
    800002b4:	00800d13          	li	s10,8
    800002b8:	020d9693          	slli	a3,s11,0x20
    800002bc:	020d1713          	slli	a4,s10,0x20
    800002c0:	00768693          	addi	a3,a3,7
    800002c4:	00d13023          	sd	a3,0(sp)
    800002c8:	00870693          	addi	a3,a4,8
    800002cc:	0007a737          	lui	a4,0x7a
    800002d0:	12170713          	addi	a4,a4,289 # 7a121 <_entry_offset+0x7a121>
    800002d4:	00e13c23          	sd	a4,24(sp)
    800002d8:	00004717          	auipc	a4,0x4
    800002dc:	5f070713          	addi	a4,a4,1520 # 800048c8 <Begin_Time>
    800002e0:	00100c13          	li	s8,1
    800002e4:	00004997          	auipc	s3,0x4
    800002e8:	5f098993          	addi	s3,s3,1520 # 800048d4 <Ch_1_Glob>
    800002ec:	00004b17          	auipc	s6,0x4
    800002f0:	5e4b0b13          	addi	s6,s6,1508 # 800048d0 <Bool_Glob>
    800002f4:	00004497          	auipc	s1,0x4
    800002f8:	5e148493          	addi	s1,s1,1505 # 800048d5 <Ch_2_Glob>
    800002fc:	00002917          	auipc	s2,0x2
    80000300:	9f490913          	addi	s2,s2,-1548 # 80001cf0 <Arr_1_Glob>
    80000304:	00004a97          	auipc	s5,0x4
    80000308:	5e4a8a93          	addi	s5,s5,1508 # 800048e8 <Int_Glob>
    8000030c:	00d13423          	sd	a3,8(sp)
    80000310:	00001a17          	auipc	s4,0x1
    80000314:	ff0a0a13          	addi	s4,s4,-16 # 80001300 <_etext+0xd4>
    80000318:	02079793          	slli	a5,a5,0x20
    8000031c:	0207d793          	srli	a5,a5,0x20
    80000320:	00f73023          	sd	a5,0(a4)
    80000324:	04100793          	li	a5,65
    80000328:	00f98023          	sb	a5,0(s3)
    8000032c:	00100793          	li	a5,1
    80000330:	00fb2023          	sw	a5,0(s6)
    80000334:	00001597          	auipc	a1,0x1
    80000338:	fac58593          	addi	a1,a1,-84 # 800012e0 <_etext+0xb4>
    8000033c:	04200793          	li	a5,66
    80000340:	05010513          	addi	a0,sp,80
    80000344:	00f48023          	sb	a5,0(s1)
    80000348:	61d000ef          	jal	ra,80001164 <strcpy>
    8000034c:	03214783          	lbu	a5,50(sp)
    80000350:	05314703          	lbu	a4,83(sp)
    80000354:	00000693          	li	a3,0
    80000358:	78e78863          	beq	a5,a4,80000ae8 <main+0x970>
    8000035c:	00068463          	beqz	a3,80000364 <main+0x1ec>
    80000360:	01798023          	sb	s7,0(s3)
    80000364:	05010593          	addi	a1,sp,80
    80000368:	03010513          	addi	a0,sp,48
    8000036c:	645000ef          	jal	ra,800011b0 <strcmp>
    80000370:	00050713          	mv	a4,a0
    80000374:	00172713          	slti	a4,a4,1
    80000378:	00eb2023          	sw	a4,0(s6)
    8000037c:	00013703          	ld	a4,0(sp)
    80000380:	65c42783          	lw	a5,1628(s0)
    80000384:	000cb503          	ld	a0,0(s9)
    80000388:	02e93023          	sd	a4,32(s2)
    8000038c:	00813703          	ld	a4,8(sp)
    80000390:	0017879b          	addiw	a5,a5,1
    80000394:	64f42e23          	sw	a5,1628(s0)
    80000398:	00003797          	auipc	a5,0x3
    8000039c:	a2078793          	addi	a5,a5,-1504 # 80002db8 <Arr_2_Glob+0x1000>
    800003a0:	66e43023          	sd	a4,1632(s0)
    800003a4:	61b7a023          	sw	s11,1536(a5)
    800003a8:	00500793          	li	a5,5
    800003ac:	00faa023          	sw	a5,0(s5)
    800003b0:	09a92c23          	sw	s10,152(s2)
    800003b4:	cb1ff0ef          	jal	ra,80000064 <Proc_1>
    800003b8:	0004c583          	lbu	a1,0(s1)
    800003bc:	04000713          	li	a4,64
    800003c0:	04100793          	li	a5,65
    800003c4:	00100693          	li	a3,1
    800003c8:	00300813          	li	a6,3
    800003cc:	04300613          	li	a2,67
    800003d0:	72b77263          	bgeu	a4,a1,80000af4 <main+0x97c>
    800003d4:	0004c703          	lbu	a4,0(s1)
    800003d8:	0017879b          	addiw	a5,a5,1
    800003dc:	0ff7f793          	zext.b	a5,a5
    800003e0:	000a0593          	mv	a1,s4
    800003e4:	05010513          	addi	a0,sp,80
    800003e8:	04f76263          	bltu	a4,a5,8000042c <main+0x2b4>
    800003ec:	00000713          	li	a4,0
    800003f0:	6ec78663          	beq	a5,a2,80000adc <main+0x964>
    800003f4:	fee690e3          	bne	a3,a4,800003d4 <main+0x25c>
    800003f8:	00f13823          	sd	a5,16(sp)
    800003fc:	569000ef          	jal	ra,80001164 <strcpy>
    80000400:	01013783          	ld	a5,16(sp)
    80000404:	0004c703          	lbu	a4,0(s1)
    80000408:	018aa023          	sw	s8,0(s5)
    8000040c:	0017879b          	addiw	a5,a5,1
    80000410:	0ff7f793          	zext.b	a5,a5
    80000414:	00000693          	li	a3,0
    80000418:	000c0813          	mv	a6,s8
    8000041c:	04300613          	li	a2,67
    80000420:	000a0593          	mv	a1,s4
    80000424:	05010513          	addi	a0,sp,80
    80000428:	fcf772e3          	bgeu	a4,a5,800003ec <main+0x274>
    8000042c:	0018179b          	slliw	a5,a6,0x1
    80000430:	010787bb          	addw	a5,a5,a6
    80000434:	00700713          	li	a4,7
    80000438:	02e7c73b          	divw	a4,a5,a4
    8000043c:	ff97879b          	addiw	a5,a5,-7
    80000440:	0037961b          	slliw	a2,a5,0x3
    80000444:	40f607bb          	subw	a5,a2,a5
    80000448:	40e787bb          	subw	a5,a5,a4
    8000044c:	0007061b          	sext.w	a2,a4
    80000450:	0009c703          	lbu	a4,0(s3)
    80000454:	04100593          	li	a1,65
    80000458:	00b71863          	bne	a4,a1,80000468 <main+0x2f0>
    8000045c:	000aa703          	lw	a4,0(s5)
    80000460:	0096061b          	addiw	a2,a2,9
    80000464:	40e6063b          	subw	a2,a2,a4
    80000468:	01813703          	ld	a4,24(sp)
    8000046c:	001c0c1b          	addiw	s8,s8,1
    80000470:	eaec1ae3          	bne	s8,a4,80000324 <main+0x1ac>
    80000474:	02810593          	addi	a1,sp,40
    80000478:	00600513          	li	a0,6
    8000047c:	00d13823          	sd	a3,16(sp)
    80000480:	00c13423          	sd	a2,8(sp)
    80000484:	00f13023          	sd	a5,0(sp)
    80000488:	794000ef          	jal	ra,80000c1c <ioe_read>
    8000048c:	02813703          	ld	a4,40(sp)
    80000490:	3e800593          	li	a1,1000
    80000494:	00004797          	auipc	a5,0x4
    80000498:	43478793          	addi	a5,a5,1076 # 800048c8 <Begin_Time>
    8000049c:	02b75733          	divu	a4,a4,a1
    800004a0:	0007b503          	ld	a0,0(a5)
    800004a4:	000aa583          	lw	a1,0(s5)
    800004a8:	00100813          	li	a6,1
    800004ac:	00004a17          	auipc	s4,0x4
    800004b0:	454a0a13          	addi	s4,s4,1108 # 80004900 <User_Time>
    800004b4:	00004897          	auipc	a7,0x4
    800004b8:	4308a223          	sw	a6,1060(a7) # 800048d8 <Done>
    800004bc:	00500813          	li	a6,5
    800004c0:	00013783          	ld	a5,0(sp)
    800004c4:	00813603          	ld	a2,8(sp)
    800004c8:	01013683          	ld	a3,16(sp)
    800004cc:	02071713          	slli	a4,a4,0x20
    800004d0:	02075713          	srli	a4,a4,0x20
    800004d4:	40a70533          	sub	a0,a4,a0
    800004d8:	00004897          	auipc	a7,0x4
    800004dc:	40e8b423          	sd	a4,1032(a7) # 800048e0 <End_Time>
    800004e0:	00aa3023          	sd	a0,0(s4)
    800004e4:	03058a63          	beq	a1,a6,80000518 <main+0x3a0>
    800004e8:	00001517          	auipc	a0,0x1
    800004ec:	e3850513          	addi	a0,a0,-456 # 80001320 <_etext+0xf4>
    800004f0:	00001717          	auipc	a4,0x1
    800004f4:	3e072c23          	sw	zero,1016(a4) # 800018e8 <pass>
    800004f8:	095000ef          	jal	ra,80000d8c <printf>
    800004fc:	00500593          	li	a1,5
    80000500:	00001517          	auipc	a0,0x1
    80000504:	e4050513          	addi	a0,a0,-448 # 80001340 <_etext+0x114>
    80000508:	085000ef          	jal	ra,80000d8c <printf>
    8000050c:	01013683          	ld	a3,16(sp)
    80000510:	00813603          	ld	a2,8(sp)
    80000514:	00013783          	ld	a5,0(sp)
    80000518:	000b2583          	lw	a1,0(s6)
    8000051c:	00100713          	li	a4,1
    80000520:	04e58063          	beq	a1,a4,80000560 <main+0x3e8>
    80000524:	00001517          	auipc	a0,0x1
    80000528:	e3c50513          	addi	a0,a0,-452 # 80001360 <_etext+0x134>
    8000052c:	00d13823          	sd	a3,16(sp)
    80000530:	00c13423          	sd	a2,8(sp)
    80000534:	00f13023          	sd	a5,0(sp)
    80000538:	00001717          	auipc	a4,0x1
    8000053c:	3a072823          	sw	zero,944(a4) # 800018e8 <pass>
    80000540:	04d000ef          	jal	ra,80000d8c <printf>
    80000544:	00100593          	li	a1,1
    80000548:	00001517          	auipc	a0,0x1
    8000054c:	df850513          	addi	a0,a0,-520 # 80001340 <_etext+0x114>
    80000550:	03d000ef          	jal	ra,80000d8c <printf>
    80000554:	01013683          	ld	a3,16(sp)
    80000558:	00813603          	ld	a2,8(sp)
    8000055c:	00013783          	ld	a5,0(sp)
    80000560:	0009c583          	lbu	a1,0(s3)
    80000564:	04100713          	li	a4,65
    80000568:	04e58063          	beq	a1,a4,800005a8 <main+0x430>
    8000056c:	00001517          	auipc	a0,0x1
    80000570:	e1450513          	addi	a0,a0,-492 # 80001380 <_etext+0x154>
    80000574:	00d13823          	sd	a3,16(sp)
    80000578:	00c13423          	sd	a2,8(sp)
    8000057c:	00f13023          	sd	a5,0(sp)
    80000580:	00001717          	auipc	a4,0x1
    80000584:	36072423          	sw	zero,872(a4) # 800018e8 <pass>
    80000588:	005000ef          	jal	ra,80000d8c <printf>
    8000058c:	04100593          	li	a1,65
    80000590:	00001517          	auipc	a0,0x1
    80000594:	e1050513          	addi	a0,a0,-496 # 800013a0 <_etext+0x174>
    80000598:	7f4000ef          	jal	ra,80000d8c <printf>
    8000059c:	01013683          	ld	a3,16(sp)
    800005a0:	00813603          	ld	a2,8(sp)
    800005a4:	00013783          	ld	a5,0(sp)
    800005a8:	0004c583          	lbu	a1,0(s1)
    800005ac:	04200713          	li	a4,66
    800005b0:	04e58063          	beq	a1,a4,800005f0 <main+0x478>
    800005b4:	00001517          	auipc	a0,0x1
    800005b8:	e0c50513          	addi	a0,a0,-500 # 800013c0 <_etext+0x194>
    800005bc:	00d13823          	sd	a3,16(sp)
    800005c0:	00c13423          	sd	a2,8(sp)
    800005c4:	00f13023          	sd	a5,0(sp)
    800005c8:	00001717          	auipc	a4,0x1
    800005cc:	32072023          	sw	zero,800(a4) # 800018e8 <pass>
    800005d0:	7bc000ef          	jal	ra,80000d8c <printf>
    800005d4:	04200593          	li	a1,66
    800005d8:	00001517          	auipc	a0,0x1
    800005dc:	dc850513          	addi	a0,a0,-568 # 800013a0 <_etext+0x174>
    800005e0:	7ac000ef          	jal	ra,80000d8c <printf>
    800005e4:	01013683          	ld	a3,16(sp)
    800005e8:	00813603          	ld	a2,8(sp)
    800005ec:	00013783          	ld	a5,0(sp)
    800005f0:	02092583          	lw	a1,32(s2)
    800005f4:	00700713          	li	a4,7
    800005f8:	04e58063          	beq	a1,a4,80000638 <main+0x4c0>
    800005fc:	00001517          	auipc	a0,0x1
    80000600:	de450513          	addi	a0,a0,-540 # 800013e0 <_etext+0x1b4>
    80000604:	00d13823          	sd	a3,16(sp)
    80000608:	00c13423          	sd	a2,8(sp)
    8000060c:	00f13023          	sd	a5,0(sp)
    80000610:	00001717          	auipc	a4,0x1
    80000614:	2c072c23          	sw	zero,728(a4) # 800018e8 <pass>
    80000618:	774000ef          	jal	ra,80000d8c <printf>
    8000061c:	00700593          	li	a1,7
    80000620:	00001517          	auipc	a0,0x1
    80000624:	d2050513          	addi	a0,a0,-736 # 80001340 <_etext+0x114>
    80000628:	764000ef          	jal	ra,80000d8c <printf>
    8000062c:	01013683          	ld	a3,16(sp)
    80000630:	00813603          	ld	a2,8(sp)
    80000634:	00013783          	ld	a5,0(sp)
    80000638:	65c42583          	lw	a1,1628(s0)
    8000063c:	0007a737          	lui	a4,0x7a
    80000640:	12a70713          	addi	a4,a4,298 # 7a12a <_entry_offset+0x7a12a>
    80000644:	02e58e63          	beq	a1,a4,80000680 <main+0x508>
    80000648:	00001517          	auipc	a0,0x1
    8000064c:	db850513          	addi	a0,a0,-584 # 80001400 <_etext+0x1d4>
    80000650:	00d13823          	sd	a3,16(sp)
    80000654:	00c13423          	sd	a2,8(sp)
    80000658:	00f13023          	sd	a5,0(sp)
    8000065c:	00001717          	auipc	a4,0x1
    80000660:	28072623          	sw	zero,652(a4) # 800018e8 <pass>
    80000664:	728000ef          	jal	ra,80000d8c <printf>
    80000668:	00001517          	auipc	a0,0x1
    8000066c:	db850513          	addi	a0,a0,-584 # 80001420 <_etext+0x1f4>
    80000670:	71c000ef          	jal	ra,80000d8c <printf>
    80000674:	01013683          	ld	a3,16(sp)
    80000678:	00813603          	ld	a2,8(sp)
    8000067c:	00013783          	ld	a5,0(sp)
    80000680:	000cb703          	ld	a4,0(s9)
    80000684:	00872583          	lw	a1,8(a4)
    80000688:	04058063          	beqz	a1,800006c8 <main+0x550>
    8000068c:	00001517          	auipc	a0,0x1
    80000690:	dc450513          	addi	a0,a0,-572 # 80001450 <_etext+0x224>
    80000694:	00d13823          	sd	a3,16(sp)
    80000698:	00c13423          	sd	a2,8(sp)
    8000069c:	00f13023          	sd	a5,0(sp)
    800006a0:	00001717          	auipc	a4,0x1
    800006a4:	24072423          	sw	zero,584(a4) # 800018e8 <pass>
    800006a8:	6e4000ef          	jal	ra,80000d8c <printf>
    800006ac:	00000593          	li	a1,0
    800006b0:	00001517          	auipc	a0,0x1
    800006b4:	c9050513          	addi	a0,a0,-880 # 80001340 <_etext+0x114>
    800006b8:	6d4000ef          	jal	ra,80000d8c <printf>
    800006bc:	01013683          	ld	a3,16(sp)
    800006c0:	00813603          	ld	a2,8(sp)
    800006c4:	00013783          	ld	a5,0(sp)
    800006c8:	000cb583          	ld	a1,0(s9)
    800006cc:	00200713          	li	a4,2
    800006d0:	00c5a583          	lw	a1,12(a1)
    800006d4:	04e58063          	beq	a1,a4,80000714 <main+0x59c>
    800006d8:	00001517          	auipc	a0,0x1
    800006dc:	da050513          	addi	a0,a0,-608 # 80001478 <_etext+0x24c>
    800006e0:	00d13823          	sd	a3,16(sp)
    800006e4:	00c13423          	sd	a2,8(sp)
    800006e8:	00f13023          	sd	a5,0(sp)
    800006ec:	00001717          	auipc	a4,0x1
    800006f0:	1e072e23          	sw	zero,508(a4) # 800018e8 <pass>
    800006f4:	698000ef          	jal	ra,80000d8c <printf>
    800006f8:	00200593          	li	a1,2
    800006fc:	00001517          	auipc	a0,0x1
    80000700:	c4450513          	addi	a0,a0,-956 # 80001340 <_etext+0x114>
    80000704:	688000ef          	jal	ra,80000d8c <printf>
    80000708:	01013683          	ld	a3,16(sp)
    8000070c:	00813603          	ld	a2,8(sp)
    80000710:	00013783          	ld	a5,0(sp)
    80000714:	000cb583          	ld	a1,0(s9)
    80000718:	01100713          	li	a4,17
    8000071c:	0105a583          	lw	a1,16(a1)
    80000720:	04e58063          	beq	a1,a4,80000760 <main+0x5e8>
    80000724:	00001517          	auipc	a0,0x1
    80000728:	d7c50513          	addi	a0,a0,-644 # 800014a0 <_etext+0x274>
    8000072c:	00d13823          	sd	a3,16(sp)
    80000730:	00c13423          	sd	a2,8(sp)
    80000734:	00f13023          	sd	a5,0(sp)
    80000738:	00001717          	auipc	a4,0x1
    8000073c:	1a072823          	sw	zero,432(a4) # 800018e8 <pass>
    80000740:	64c000ef          	jal	ra,80000d8c <printf>
    80000744:	01100593          	li	a1,17
    80000748:	00001517          	auipc	a0,0x1
    8000074c:	bf850513          	addi	a0,a0,-1032 # 80001340 <_etext+0x114>
    80000750:	63c000ef          	jal	ra,80000d8c <printf>
    80000754:	01013683          	ld	a3,16(sp)
    80000758:	00813603          	ld	a2,8(sp)
    8000075c:	00013783          	ld	a5,0(sp)
    80000760:	000cb503          	ld	a0,0(s9)
    80000764:	00001597          	auipc	a1,0x1
    80000768:	adc58593          	addi	a1,a1,-1316 # 80001240 <_etext+0x14>
    8000076c:	00d13823          	sd	a3,16(sp)
    80000770:	01450513          	addi	a0,a0,20
    80000774:	00c13423          	sd	a2,8(sp)
    80000778:	00f13023          	sd	a5,0(sp)
    8000077c:	235000ef          	jal	ra,800011b0 <strcmp>
    80000780:	00013783          	ld	a5,0(sp)
    80000784:	00813603          	ld	a2,8(sp)
    80000788:	01013683          	ld	a3,16(sp)
    8000078c:	02050c63          	beqz	a0,800007c4 <main+0x64c>
    80000790:	000cb583          	ld	a1,0(s9)
    80000794:	00001517          	auipc	a0,0x1
    80000798:	d3450513          	addi	a0,a0,-716 # 800014c8 <_etext+0x29c>
    8000079c:	00001717          	auipc	a4,0x1
    800007a0:	14072623          	sw	zero,332(a4) # 800018e8 <pass>
    800007a4:	01458593          	addi	a1,a1,20
    800007a8:	5e4000ef          	jal	ra,80000d8c <printf>
    800007ac:	00001517          	auipc	a0,0x1
    800007b0:	d4450513          	addi	a0,a0,-700 # 800014f0 <_etext+0x2c4>
    800007b4:	5d8000ef          	jal	ra,80000d8c <printf>
    800007b8:	01013683          	ld	a3,16(sp)
    800007bc:	00813603          	ld	a2,8(sp)
    800007c0:	00013783          	ld	a5,0(sp)
    800007c4:	00004717          	auipc	a4,0x4
    800007c8:	12c70713          	addi	a4,a4,300 # 800048f0 <Next_Ptr_Glob>
    800007cc:	00073703          	ld	a4,0(a4)
    800007d0:	00872583          	lw	a1,8(a4)
    800007d4:	04058063          	beqz	a1,80000814 <main+0x69c>
    800007d8:	00001517          	auipc	a0,0x1
    800007dc:	d5050513          	addi	a0,a0,-688 # 80001528 <_etext+0x2fc>
    800007e0:	00d13823          	sd	a3,16(sp)
    800007e4:	00c13423          	sd	a2,8(sp)
    800007e8:	00f13023          	sd	a5,0(sp)
    800007ec:	00001717          	auipc	a4,0x1
    800007f0:	0e072e23          	sw	zero,252(a4) # 800018e8 <pass>
    800007f4:	598000ef          	jal	ra,80000d8c <printf>
    800007f8:	00000593          	li	a1,0
    800007fc:	00001517          	auipc	a0,0x1
    80000800:	b4450513          	addi	a0,a0,-1212 # 80001340 <_etext+0x114>
    80000804:	588000ef          	jal	ra,80000d8c <printf>
    80000808:	01013683          	ld	a3,16(sp)
    8000080c:	00813603          	ld	a2,8(sp)
    80000810:	00013783          	ld	a5,0(sp)
    80000814:	00004717          	auipc	a4,0x4
    80000818:	0dc70713          	addi	a4,a4,220 # 800048f0 <Next_Ptr_Glob>
    8000081c:	00073583          	ld	a1,0(a4)
    80000820:	00100713          	li	a4,1
    80000824:	00c5a583          	lw	a1,12(a1)
    80000828:	04e58063          	beq	a1,a4,80000868 <main+0x6f0>
    8000082c:	00001517          	auipc	a0,0x1
    80000830:	d2450513          	addi	a0,a0,-732 # 80001550 <_etext+0x324>
    80000834:	00d13823          	sd	a3,16(sp)
    80000838:	00c13423          	sd	a2,8(sp)
    8000083c:	00f13023          	sd	a5,0(sp)
    80000840:	00001717          	auipc	a4,0x1
    80000844:	0a072423          	sw	zero,168(a4) # 800018e8 <pass>
    80000848:	544000ef          	jal	ra,80000d8c <printf>
    8000084c:	00100593          	li	a1,1
    80000850:	00001517          	auipc	a0,0x1
    80000854:	af050513          	addi	a0,a0,-1296 # 80001340 <_etext+0x114>
    80000858:	534000ef          	jal	ra,80000d8c <printf>
    8000085c:	01013683          	ld	a3,16(sp)
    80000860:	00813603          	ld	a2,8(sp)
    80000864:	00013783          	ld	a5,0(sp)
    80000868:	00004717          	auipc	a4,0x4
    8000086c:	08870713          	addi	a4,a4,136 # 800048f0 <Next_Ptr_Glob>
    80000870:	00073583          	ld	a1,0(a4)
    80000874:	01200713          	li	a4,18
    80000878:	0105a583          	lw	a1,16(a1)
    8000087c:	04e58063          	beq	a1,a4,800008bc <main+0x744>
    80000880:	00001517          	auipc	a0,0x1
    80000884:	cf850513          	addi	a0,a0,-776 # 80001578 <_etext+0x34c>
    80000888:	00d13823          	sd	a3,16(sp)
    8000088c:	00c13423          	sd	a2,8(sp)
    80000890:	00f13023          	sd	a5,0(sp)
    80000894:	00001717          	auipc	a4,0x1
    80000898:	04072a23          	sw	zero,84(a4) # 800018e8 <pass>
    8000089c:	4f0000ef          	jal	ra,80000d8c <printf>
    800008a0:	01200593          	li	a1,18
    800008a4:	00001517          	auipc	a0,0x1
    800008a8:	a9c50513          	addi	a0,a0,-1380 # 80001340 <_etext+0x114>
    800008ac:	4e0000ef          	jal	ra,80000d8c <printf>
    800008b0:	01013683          	ld	a3,16(sp)
    800008b4:	00813603          	ld	a2,8(sp)
    800008b8:	00013783          	ld	a5,0(sp)
    800008bc:	00004417          	auipc	s0,0x4
    800008c0:	03440413          	addi	s0,s0,52 # 800048f0 <Next_Ptr_Glob>
    800008c4:	00043503          	ld	a0,0(s0)
    800008c8:	00001597          	auipc	a1,0x1
    800008cc:	97858593          	addi	a1,a1,-1672 # 80001240 <_etext+0x14>
    800008d0:	00d13823          	sd	a3,16(sp)
    800008d4:	01450513          	addi	a0,a0,20
    800008d8:	00c13423          	sd	a2,8(sp)
    800008dc:	00f13023          	sd	a5,0(sp)
    800008e0:	0d1000ef          	jal	ra,800011b0 <strcmp>
    800008e4:	00013783          	ld	a5,0(sp)
    800008e8:	00813603          	ld	a2,8(sp)
    800008ec:	01013683          	ld	a3,16(sp)
    800008f0:	02050c63          	beqz	a0,80000928 <main+0x7b0>
    800008f4:	00043583          	ld	a1,0(s0)
    800008f8:	00001517          	auipc	a0,0x1
    800008fc:	ca850513          	addi	a0,a0,-856 # 800015a0 <_etext+0x374>
    80000900:	00001717          	auipc	a4,0x1
    80000904:	fe072423          	sw	zero,-24(a4) # 800018e8 <pass>
    80000908:	01458593          	addi	a1,a1,20
    8000090c:	480000ef          	jal	ra,80000d8c <printf>
    80000910:	00001517          	auipc	a0,0x1
    80000914:	be050513          	addi	a0,a0,-1056 # 800014f0 <_etext+0x2c4>
    80000918:	474000ef          	jal	ra,80000d8c <printf>
    8000091c:	01013683          	ld	a3,16(sp)
    80000920:	00813603          	ld	a2,8(sp)
    80000924:	00013783          	ld	a5,0(sp)
    80000928:	00500713          	li	a4,5
    8000092c:	02e60e63          	beq	a2,a4,80000968 <main+0x7f0>
    80000930:	00060593          	mv	a1,a2
    80000934:	00001517          	auipc	a0,0x1
    80000938:	c9450513          	addi	a0,a0,-876 # 800015c8 <_etext+0x39c>
    8000093c:	00d13423          	sd	a3,8(sp)
    80000940:	00f13023          	sd	a5,0(sp)
    80000944:	00001717          	auipc	a4,0x1
    80000948:	fa072223          	sw	zero,-92(a4) # 800018e8 <pass>
    8000094c:	440000ef          	jal	ra,80000d8c <printf>
    80000950:	00500593          	li	a1,5
    80000954:	00001517          	auipc	a0,0x1
    80000958:	9ec50513          	addi	a0,a0,-1556 # 80001340 <_etext+0x114>
    8000095c:	430000ef          	jal	ra,80000d8c <printf>
    80000960:	00813683          	ld	a3,8(sp)
    80000964:	00013783          	ld	a5,0(sp)
    80000968:	00d00713          	li	a4,13
    8000096c:	02e78a63          	beq	a5,a4,800009a0 <main+0x828>
    80000970:	00078593          	mv	a1,a5
    80000974:	00001517          	auipc	a0,0x1
    80000978:	c7450513          	addi	a0,a0,-908 # 800015e8 <_etext+0x3bc>
    8000097c:	00d13023          	sd	a3,0(sp)
    80000980:	00001797          	auipc	a5,0x1
    80000984:	f607a423          	sw	zero,-152(a5) # 800018e8 <pass>
    80000988:	404000ef          	jal	ra,80000d8c <printf>
    8000098c:	00d00593          	li	a1,13
    80000990:	00001517          	auipc	a0,0x1
    80000994:	9b050513          	addi	a0,a0,-1616 # 80001340 <_etext+0x114>
    80000998:	3f4000ef          	jal	ra,80000d8c <printf>
    8000099c:	00013683          	ld	a3,0(sp)
    800009a0:	02069663          	bnez	a3,800009cc <main+0x854>
    800009a4:	00000593          	li	a1,0
    800009a8:	00001517          	auipc	a0,0x1
    800009ac:	c6050513          	addi	a0,a0,-928 # 80001608 <_etext+0x3dc>
    800009b0:	00001797          	auipc	a5,0x1
    800009b4:	f207ac23          	sw	zero,-200(a5) # 800018e8 <pass>
    800009b8:	3d4000ef          	jal	ra,80000d8c <printf>
    800009bc:	00100593          	li	a1,1
    800009c0:	00001517          	auipc	a0,0x1
    800009c4:	98050513          	addi	a0,a0,-1664 # 80001340 <_etext+0x114>
    800009c8:	3c4000ef          	jal	ra,80000d8c <printf>
    800009cc:	00001597          	auipc	a1,0x1
    800009d0:	89458593          	addi	a1,a1,-1900 # 80001260 <_etext+0x34>
    800009d4:	03010513          	addi	a0,sp,48
    800009d8:	7d8000ef          	jal	ra,800011b0 <strcmp>
    800009dc:	02050463          	beqz	a0,80000a04 <main+0x88c>
    800009e0:	03010593          	addi	a1,sp,48
    800009e4:	00001517          	auipc	a0,0x1
    800009e8:	c4450513          	addi	a0,a0,-956 # 80001628 <_etext+0x3fc>
    800009ec:	00001797          	auipc	a5,0x1
    800009f0:	ee07ae23          	sw	zero,-260(a5) # 800018e8 <pass>
    800009f4:	398000ef          	jal	ra,80000d8c <printf>
    800009f8:	00001517          	auipc	a0,0x1
    800009fc:	c5050513          	addi	a0,a0,-944 # 80001648 <_etext+0x41c>
    80000a00:	38c000ef          	jal	ra,80000d8c <printf>
    80000a04:	00001597          	auipc	a1,0x1
    80000a08:	8dc58593          	addi	a1,a1,-1828 # 800012e0 <_etext+0xb4>
    80000a0c:	05010513          	addi	a0,sp,80
    80000a10:	7a0000ef          	jal	ra,800011b0 <strcmp>
    80000a14:	02050463          	beqz	a0,80000a3c <main+0x8c4>
    80000a18:	05010593          	addi	a1,sp,80
    80000a1c:	00001517          	auipc	a0,0x1
    80000a20:	c6450513          	addi	a0,a0,-924 # 80001680 <_etext+0x454>
    80000a24:	00001797          	auipc	a5,0x1
    80000a28:	ec07a223          	sw	zero,-316(a5) # 800018e8 <pass>
    80000a2c:	360000ef          	jal	ra,80000d8c <printf>
    80000a30:	00001517          	auipc	a0,0x1
    80000a34:	c7050513          	addi	a0,a0,-912 # 800016a0 <_etext+0x474>
    80000a38:	354000ef          	jal	ra,80000d8c <printf>
    80000a3c:	000a2583          	lw	a1,0(s4)
    80000a40:	00001517          	auipc	a0,0x1
    80000a44:	c9850513          	addi	a0,a0,-872 # 800016d8 <_etext+0x4ac>
    80000a48:	344000ef          	jal	ra,80000d8c <printf>
    80000a4c:	00001517          	auipc	a0,0x1
    80000a50:	ca450513          	addi	a0,a0,-860 # 800016f0 <_etext+0x4c4>
    80000a54:	338000ef          	jal	ra,80000d8c <printf>
    80000a58:	00001797          	auipc	a5,0x1
    80000a5c:	e907a783          	lw	a5,-368(a5) # 800018e8 <pass>
    80000a60:	00000597          	auipc	a1,0x0
    80000a64:	7d058593          	addi	a1,a1,2000 # 80001230 <_etext+0x4>
    80000a68:	00079663          	bnez	a5,80000a74 <main+0x8fc>
    80000a6c:	00000597          	auipc	a1,0x0
    80000a70:	7cc58593          	addi	a1,a1,1996 # 80001238 <_etext+0xc>
    80000a74:	000a3603          	ld	a2,0(s4)
    80000a78:	000d77b7          	lui	a5,0xd7
    80000a7c:	1047879b          	addiw	a5,a5,260 # d7104 <_entry_offset+0xd7104>
    80000a80:	02c7c63b          	divw	a2,a5,a2
    80000a84:	00001517          	auipc	a0,0x1
    80000a88:	ca450513          	addi	a0,a0,-860 # 80001728 <_etext+0x4fc>
    80000a8c:	300000ef          	jal	ra,80000d8c <printf>
    80000a90:	00001517          	auipc	a0,0x1
    80000a94:	cb850513          	addi	a0,a0,-840 # 80001748 <_etext+0x51c>
    80000a98:	2f4000ef          	jal	ra,80000d8c <printf>
    80000a9c:	0d813083          	ld	ra,216(sp)
    80000aa0:	0d013403          	ld	s0,208(sp)
    80000aa4:	0c813483          	ld	s1,200(sp)
    80000aa8:	0c013903          	ld	s2,192(sp)
    80000aac:	0b813983          	ld	s3,184(sp)
    80000ab0:	0b013a03          	ld	s4,176(sp)
    80000ab4:	0a813a83          	ld	s5,168(sp)
    80000ab8:	0a013b03          	ld	s6,160(sp)
    80000abc:	09813b83          	ld	s7,152(sp)
    80000ac0:	09013c03          	ld	s8,144(sp)
    80000ac4:	08813c83          	ld	s9,136(sp)
    80000ac8:	08013d03          	ld	s10,128(sp)
    80000acc:	07813d83          	ld	s11,120(sp)
    80000ad0:	00000513          	li	a0,0
    80000ad4:	0e010113          	addi	sp,sp,224
    80000ad8:	00008067          	ret
    80000adc:	00f98023          	sb	a5,0(s3)
    80000ae0:	00100713          	li	a4,1
    80000ae4:	911ff06f          	j	800003f4 <main+0x27c>
    80000ae8:	00100693          	li	a3,1
    80000aec:	00078b93          	mv	s7,a5
    80000af0:	869ff06f          	j	80000358 <main+0x1e0>
    80000af4:	00d00793          	li	a5,13
    80000af8:	00100613          	li	a2,1
    80000afc:	955ff06f          	j	80000450 <main+0x2d8>

0000000080000b00 <putch>:
    80000b00:	00500793          	li	a5,5
    80000b04:	01d79793          	slli	a5,a5,0x1d
    80000b08:	3ea78c23          	sb	a0,1016(a5)
    80000b0c:	00008067          	ret

0000000080000b10 <halt>:
    80000b10:	00050513          	mv	a0,a0
    80000b14:	00100073          	ebreak
    80000b18:	0000006f          	j	80000b18 <halt+0x8>

0000000080000b1c <_trm_init>:
    80000b1c:	ff010113          	addi	sp,sp,-16
    80000b20:	00001517          	auipc	a0,0x1
    80000b24:	db850513          	addi	a0,a0,-584 # 800018d8 <mainargs>
    80000b28:	00113423          	sd	ra,8(sp)
    80000b2c:	e4cff0ef          	jal	ra,80000178 <main>
    80000b30:	00050513          	mv	a0,a0
    80000b34:	00100073          	ebreak
    80000b38:	0000006f          	j	80000b38 <_trm_init+0x1c>

0000000080000b3c <__am_timer_config>:
    80000b3c:	00100793          	li	a5,1
    80000b40:	00f50023          	sb	a5,0(a0)
    80000b44:	00f500a3          	sb	a5,1(a0)
    80000b48:	00008067          	ret

0000000080000b4c <__am_input_config>:
    80000b4c:	00100793          	li	a5,1
    80000b50:	00f50023          	sb	a5,0(a0)
    80000b54:	00008067          	ret

0000000080000b58 <__am_uart_config>:
    80000b58:	00050023          	sb	zero,0(a0)
    80000b5c:	00008067          	ret

0000000080000b60 <fail>:
    80000b60:	ff010113          	addi	sp,sp,-16
    80000b64:	00813023          	sd	s0,0(sp)
    80000b68:	00113423          	sd	ra,8(sp)
    80000b6c:	00001417          	auipc	s0,0x1
    80000b70:	c1c40413          	addi	s0,s0,-996 # 80001788 <_etext+0x55c>
    80000b74:	04100513          	li	a0,65
    80000b78:	00140413          	addi	s0,s0,1
    80000b7c:	f85ff0ef          	jal	ra,80000b00 <putch>
    80000b80:	00044503          	lbu	a0,0(s0)
    80000b84:	fe051ae3          	bnez	a0,80000b78 <fail+0x18>
    80000b88:	00001417          	auipc	s0,0x1
    80000b8c:	c1040413          	addi	s0,s0,-1008 # 80001798 <_etext+0x56c>
    80000b90:	06100513          	li	a0,97
    80000b94:	00140413          	addi	s0,s0,1
    80000b98:	f69ff0ef          	jal	ra,80000b00 <putch>
    80000b9c:	00044503          	lbu	a0,0(s0)
    80000ba0:	fe051ae3          	bnez	a0,80000b94 <fail+0x34>
    80000ba4:	00001417          	auipc	s0,0x1
    80000ba8:	c1440413          	addi	s0,s0,-1004 # 800017b8 <_etext+0x58c>
    80000bac:	02000513          	li	a0,32
    80000bb0:	00140413          	addi	s0,s0,1
    80000bb4:	f4dff0ef          	jal	ra,80000b00 <putch>
    80000bb8:	00044503          	lbu	a0,0(s0)
    80000bbc:	fe051ae3          	bnez	a0,80000bb0 <fail+0x50>
    80000bc0:	00100513          	li	a0,1
    80000bc4:	f4dff0ef          	jal	ra,80000b10 <halt>

0000000080000bc8 <ioe_init>:
    80000bc8:	ff010113          	addi	sp,sp,-16
    80000bcc:	00113423          	sd	ra,8(sp)
    80000bd0:	00001797          	auipc	a5,0x1
    80000bd4:	d2078793          	addi	a5,a5,-736 # 800018f0 <lut>
    80000bd8:	00001697          	auipc	a3,0x1
    80000bdc:	11868693          	addi	a3,a3,280 # 80001cf0 <Arr_1_Glob>
    80000be0:	00000617          	auipc	a2,0x0
    80000be4:	f8060613          	addi	a2,a2,-128 # 80000b60 <fail>
    80000be8:	00c0006f          	j	80000bf4 <ioe_init+0x2c>
    80000bec:	00878793          	addi	a5,a5,8
    80000bf0:	00d78c63          	beq	a5,a3,80000c08 <ioe_init+0x40>
    80000bf4:	0007b703          	ld	a4,0(a5)
    80000bf8:	fe071ae3          	bnez	a4,80000bec <ioe_init+0x24>
    80000bfc:	00c7b023          	sd	a2,0(a5)
    80000c00:	00878793          	addi	a5,a5,8
    80000c04:	fed798e3          	bne	a5,a3,80000bf4 <ioe_init+0x2c>
    80000c08:	030000ef          	jal	ra,80000c38 <__am_timer_init>
    80000c0c:	00813083          	ld	ra,8(sp)
    80000c10:	00100513          	li	a0,1
    80000c14:	01010113          	addi	sp,sp,16
    80000c18:	00008067          	ret

0000000080000c1c <ioe_read>:
    80000c1c:	00351513          	slli	a0,a0,0x3
    80000c20:	00001797          	auipc	a5,0x1
    80000c24:	cd078793          	addi	a5,a5,-816 # 800018f0 <lut>
    80000c28:	00a787b3          	add	a5,a5,a0
    80000c2c:	0007b783          	ld	a5,0(a5)
    80000c30:	00058513          	mv	a0,a1
    80000c34:	00078067          	jr	a5

0000000080000c38 <__am_timer_init>:
    80000c38:	00008067          	ret

0000000080000c3c <__am_timer_uptime>:
    80000c3c:	00500713          	li	a4,5
    80000c40:	01d71713          	slli	a4,a4,0x1d
    80000c44:	04c72783          	lw	a5,76(a4)
    80000c48:	04872703          	lw	a4,72(a4)
    80000c4c:	02079793          	slli	a5,a5,0x20
    80000c50:	02071713          	slli	a4,a4,0x20
    80000c54:	02075713          	srli	a4,a4,0x20
    80000c58:	00e787b3          	add	a5,a5,a4
    80000c5c:	00f53023          	sd	a5,0(a0)
    80000c60:	00008067          	ret

0000000080000c64 <__am_timer_rtc>:
    80000c64:	76c00793          	li	a5,1900
    80000c68:	00052a23          	sw	zero,20(a0)
    80000c6c:	00052823          	sw	zero,16(a0)
    80000c70:	00052623          	sw	zero,12(a0)
    80000c74:	00052423          	sw	zero,8(a0)
    80000c78:	00052223          	sw	zero,4(a0)
    80000c7c:	00f52023          	sw	a5,0(a0)
    80000c80:	00008067          	ret

0000000080000c84 <__am_input_keybrd>:
    80000c84:	00500793          	li	a5,5
    80000c88:	01d79793          	slli	a5,a5,0x1d
    80000c8c:	0607a783          	lw	a5,96(a5)
    80000c90:	ffff86b7          	lui	a3,0xffff8
    80000c94:	fff68693          	addi	a3,a3,-1 # ffffffffffff7fff <_end+0xffffffff7ffeafff>
    80000c98:	40f7d71b          	sraiw	a4,a5,0xf
    80000c9c:	00177713          	andi	a4,a4,1
    80000ca0:	00d7f7b3          	and	a5,a5,a3
    80000ca4:	00e50023          	sb	a4,0(a0)
    80000ca8:	00f52223          	sw	a5,4(a0)
    80000cac:	00008067          	ret

0000000080000cb0 <__am_gpu_config>:
    80000cb0:	00500793          	li	a5,5
    80000cb4:	01d79793          	slli	a5,a5,0x1d
    80000cb8:	1007a703          	lw	a4,256(a5)
    80000cbc:	1007a783          	lw	a5,256(a5)
    80000cc0:	00100693          	li	a3,1
    80000cc4:	0107571b          	srliw	a4,a4,0x10
    80000cc8:	03079793          	slli	a5,a5,0x30
    80000ccc:	0307d793          	srli	a5,a5,0x30
    80000cd0:	00d51023          	sh	a3,0(a0)
    80000cd4:	00e52223          	sw	a4,4(a0)
    80000cd8:	00f52423          	sw	a5,8(a0)
    80000cdc:	00052623          	sw	zero,12(a0)
    80000ce0:	00008067          	ret

0000000080000ce4 <__am_gpu_fbdraw>:
    80000ce4:	00452e83          	lw	t4,4(a0)
    80000ce8:	01452f83          	lw	t6,20(a0)
    80000cec:	00052383          	lw	t2,0(a0)
    80000cf0:	01052283          	lw	t0,16(a0)
    80000cf4:	01df8fbb          	addw	t6,t6,t4
    80000cf8:	00853f03          	ld	t5,8(a0)
    80000cfc:	07fed463          	bge	t4,t6,80000d64 <__am_gpu_fbdraw+0x80>
    80000d00:	0053833b          	addw	t1,t2,t0
    80000d04:	0663d063          	bge	t2,t1,80000d64 <__am_gpu_fbdraw+0x80>
    80000d08:	00500893          	li	a7,5
    80000d0c:	0a100813          	li	a6,161
    80000d10:	00229293          	slli	t0,t0,0x2
    80000d14:	01d89893          	slli	a7,a7,0x1d
    80000d18:	01881813          	slli	a6,a6,0x18
    80000d1c:	000e859b          	sext.w	a1,t4
    80000d20:	000f0693          	mv	a3,t5
    80000d24:	00038713          	mv	a4,t2
    80000d28:	1008a783          	lw	a5,256(a7)
    80000d2c:	0006a603          	lw	a2,0(a3)
    80000d30:	00468693          	addi	a3,a3,4
    80000d34:	0107d79b          	srliw	a5,a5,0x10
    80000d38:	02b787bb          	mulw	a5,a5,a1
    80000d3c:	00e787bb          	addw	a5,a5,a4
    80000d40:	02079e13          	slli	t3,a5,0x20
    80000d44:	01ee5793          	srli	a5,t3,0x1e
    80000d48:	00f807b3          	add	a5,a6,a5
    80000d4c:	00c7a023          	sw	a2,0(a5)
    80000d50:	0017071b          	addiw	a4,a4,1
    80000d54:	fc671ae3          	bne	a4,t1,80000d28 <__am_gpu_fbdraw+0x44>
    80000d58:	001e8e9b          	addiw	t4,t4,1
    80000d5c:	005f0f33          	add	t5,t5,t0
    80000d60:	fbfe9ee3          	bne	t4,t6,80000d1c <__am_gpu_fbdraw+0x38>
    80000d64:	01854783          	lbu	a5,24(a0)
    80000d68:	00078a63          	beqz	a5,80000d7c <__am_gpu_fbdraw+0x98>
    80000d6c:	00500793          	li	a5,5
    80000d70:	01d79793          	slli	a5,a5,0x1d
    80000d74:	00100713          	li	a4,1
    80000d78:	10e7a223          	sw	a4,260(a5)
    80000d7c:	00008067          	ret

0000000080000d80 <__am_gpu_status>:
    80000d80:	00100793          	li	a5,1
    80000d84:	00f50023          	sb	a5,0(a0)
    80000d88:	00008067          	ret

0000000080000d8c <printf>:
    80000d8c:	f6010113          	addi	sp,sp,-160
    80000d90:	04113c23          	sd	ra,88(sp)
    80000d94:	04813823          	sd	s0,80(sp)
    80000d98:	04913423          	sd	s1,72(sp)
    80000d9c:	05213023          	sd	s2,64(sp)
    80000da0:	03313c23          	sd	s3,56(sp)
    80000da4:	03413823          	sd	s4,48(sp)
    80000da8:	03513423          	sd	s5,40(sp)
    80000dac:	03613023          	sd	s6,32(sp)
    80000db0:	01713c23          	sd	s7,24(sp)
    80000db4:	01813823          	sd	s8,16(sp)
    80000db8:	06b13423          	sd	a1,104(sp)
    80000dbc:	06c13823          	sd	a2,112(sp)
    80000dc0:	06d13c23          	sd	a3,120(sp)
    80000dc4:	08e13023          	sd	a4,128(sp)
    80000dc8:	08f13423          	sd	a5,136(sp)
    80000dcc:	09013823          	sd	a6,144(sp)
    80000dd0:	09113c23          	sd	a7,152(sp)
    80000dd4:	32050663          	beqz	a0,80001100 <printf+0x374>
    80000dd8:	00050a93          	mv	s5,a0
    80000ddc:	00054503          	lbu	a0,0(a0)
    80000de0:	06810793          	addi	a5,sp,104
    80000de4:	00f13423          	sd	a5,8(sp)
    80000de8:	30050863          	beqz	a0,800010f8 <printf+0x36c>
    80000dec:	00000493          	li	s1,0
    80000df0:	01c00993          	li	s3,28
    80000df4:	00001917          	auipc	s2,0x1
    80000df8:	a1090913          	addi	s2,s2,-1520 # 80001804 <_etext+0x5d8>
    80000dfc:	06400a13          	li	s4,100
    80000e00:	fff00413          	li	s0,-1
    80000e04:	ff75079b          	addiw	a5,a0,-9
    80000e08:	0ff7f793          	zext.b	a5,a5
    80000e0c:	001a8b13          	addi	s6,s5,1
    80000e10:	00f9ec63          	bltu	s3,a5,80000e28 <printf+0x9c>
    80000e14:	00279793          	slli	a5,a5,0x2
    80000e18:	012787b3          	add	a5,a5,s2
    80000e1c:	0007a783          	lw	a5,0(a5)
    80000e20:	012787b3          	add	a5,a5,s2
    80000e24:	00078067          	jr	a5
    80000e28:	cd9ff0ef          	jal	ra,80000b00 <putch>
    80000e2c:	0014849b          	addiw	s1,s1,1
    80000e30:	000b0a93          	mv	s5,s6
    80000e34:	000ac503          	lbu	a0,0(s5)
    80000e38:	fc0516e3          	bnez	a0,80000e04 <printf+0x78>
    80000e3c:	0004851b          	sext.w	a0,s1
    80000e40:	05813083          	ld	ra,88(sp)
    80000e44:	05013403          	ld	s0,80(sp)
    80000e48:	04813483          	ld	s1,72(sp)
    80000e4c:	04013903          	ld	s2,64(sp)
    80000e50:	03813983          	ld	s3,56(sp)
    80000e54:	03013a03          	ld	s4,48(sp)
    80000e58:	02813a83          	ld	s5,40(sp)
    80000e5c:	02013b03          	ld	s6,32(sp)
    80000e60:	01813b83          	ld	s7,24(sp)
    80000e64:	01013c03          	ld	s8,16(sp)
    80000e68:	0a010113          	addi	sp,sp,160
    80000e6c:	00008067          	ret
    80000e70:	001ac783          	lbu	a5,1(s5)
    80000e74:	11478c63          	beq	a5,s4,80000f8c <printf+0x200>
    80000e78:	06fa6a63          	bltu	s4,a5,80000eec <printf+0x160>
    80000e7c:	02500713          	li	a4,37
    80000e80:	1ee78863          	beq	a5,a4,80001070 <printf+0x2e4>
    80000e84:	06300713          	li	a4,99
    80000e88:	0ee79863          	bne	a5,a4,80000f78 <printf+0x1ec>
    80000e8c:	00813783          	ld	a5,8(sp)
    80000e90:	0014849b          	addiw	s1,s1,1
    80000e94:	002a8a93          	addi	s5,s5,2
    80000e98:	0007c503          	lbu	a0,0(a5)
    80000e9c:	00878793          	addi	a5,a5,8
    80000ea0:	00f13423          	sd	a5,8(sp)
    80000ea4:	c5dff0ef          	jal	ra,80000b00 <putch>
    80000ea8:	f8dff06f          	j	80000e34 <printf+0xa8>
    80000eac:	02000513          	li	a0,32
    80000eb0:	c51ff0ef          	jal	ra,80000b00 <putch>
    80000eb4:	0014849b          	addiw	s1,s1,1
    80000eb8:	f79ff06f          	j	80000e30 <printf+0xa4>
    80000ebc:	00d00513          	li	a0,13
    80000ec0:	c41ff0ef          	jal	ra,80000b00 <putch>
    80000ec4:	0014849b          	addiw	s1,s1,1
    80000ec8:	f69ff06f          	j	80000e30 <printf+0xa4>
    80000ecc:	00a00513          	li	a0,10
    80000ed0:	c31ff0ef          	jal	ra,80000b00 <putch>
    80000ed4:	0014849b          	addiw	s1,s1,1
    80000ed8:	f59ff06f          	j	80000e30 <printf+0xa4>
    80000edc:	00900513          	li	a0,9
    80000ee0:	c21ff0ef          	jal	ra,80000b00 <putch>
    80000ee4:	0044849b          	addiw	s1,s1,4
    80000ee8:	f49ff06f          	j	80000e30 <printf+0xa4>
    80000eec:	07300713          	li	a4,115
    80000ef0:	12e78a63          	beq	a5,a4,80001024 <printf+0x298>
    80000ef4:	07800713          	li	a4,120
    80000ef8:	08e79063          	bne	a5,a4,80000f78 <printf+0x1ec>
    80000efc:	00813783          	ld	a5,8(sp)
    80000f00:	0007bc03          	ld	s8,0(a5)
    80000f04:	00878793          	addi	a5,a5,8
    80000f08:	00f13423          	sd	a5,8(sp)
    80000f0c:	160c1c63          	bnez	s8,80001084 <printf+0x2f8>
    80000f10:	0014849b          	addiw	s1,s1,1
    80000f14:	00100b93          	li	s7,1
    80000f18:	00900b13          	li	s6,9
    80000f1c:	000b8793          	mv	a5,s7
    80000f20:	fffb8b9b          	addiw	s7,s7,-1
    80000f24:	ffe7879b          	addiw	a5,a5,-2
    80000f28:	1c0b8263          	beqz	s7,800010ec <printf+0x360>
    80000f2c:	00078713          	mv	a4,a5
    80000f30:	00100693          	li	a3,1
    80000f34:	fff7071b          	addiw	a4,a4,-1
    80000f38:	00469693          	slli	a3,a3,0x4
    80000f3c:	fe871ce3          	bne	a4,s0,80000f34 <printf+0x1a8>
    80000f40:	02dc56b3          	divu	a3,s8,a3
    80000f44:	00100713          	li	a4,1
    80000f48:	fff7879b          	addiw	a5,a5,-1
    80000f4c:	00471713          	slli	a4,a4,0x4
    80000f50:	fe879ce3          	bne	a5,s0,80000f48 <printf+0x1bc>
    80000f54:	02ec7c33          	remu	s8,s8,a4
    80000f58:	0ff6f513          	zext.b	a0,a3
    80000f5c:	16db6e63          	bltu	s6,a3,800010d8 <printf+0x34c>
    80000f60:	0305051b          	addiw	a0,a0,48
    80000f64:	0ff57513          	zext.b	a0,a0
    80000f68:	b99ff0ef          	jal	ra,80000b00 <putch>
    80000f6c:	fa0b98e3          	bnez	s7,80000f1c <printf+0x190>
    80000f70:	002a8a93          	addi	s5,s5,2
    80000f74:	ec1ff06f          	j	80000e34 <printf+0xa8>
    80000f78:	02000513          	li	a0,32
    80000f7c:	b85ff0ef          	jal	ra,80000b00 <putch>
    80000f80:	0014849b          	addiw	s1,s1,1
    80000f84:	000b0a93          	mv	s5,s6
    80000f88:	eadff06f          	j	80000e34 <printf+0xa8>
    80000f8c:	00813783          	ld	a5,8(sp)
    80000f90:	0007ab03          	lw	s6,0(a5)
    80000f94:	00878793          	addi	a5,a5,8
    80000f98:	00f13423          	sd	a5,8(sp)
    80000f9c:	100b4263          	bltz	s6,800010a0 <printf+0x314>
    80000fa0:	160b1463          	bnez	s6,80001108 <printf+0x37c>
    80000fa4:	0014849b          	addiw	s1,s1,1
    80000fa8:	00100b93          	li	s7,1
    80000fac:	ffeb8b9b          	addiw	s7,s7,-2
    80000fb0:	000b869b          	sext.w	a3,s7
    80000fb4:	048b8e63          	beq	s7,s0,80001010 <printf+0x284>
    80000fb8:	00068713          	mv	a4,a3
    80000fbc:	00100793          	li	a5,1
    80000fc0:	00279613          	slli	a2,a5,0x2
    80000fc4:	00f607b3          	add	a5,a2,a5
    80000fc8:	fff7071b          	addiw	a4,a4,-1
    80000fcc:	00179793          	slli	a5,a5,0x1
    80000fd0:	fe8718e3          	bne	a4,s0,80000fc0 <printf+0x234>
    80000fd4:	02fb57b3          	divu	a5,s6,a5
    80000fd8:	00100713          	li	a4,1
    80000fdc:	00271613          	slli	a2,a4,0x2
    80000fe0:	00e60733          	add	a4,a2,a4
    80000fe4:	fff6869b          	addiw	a3,a3,-1
    80000fe8:	00171713          	slli	a4,a4,0x1
    80000fec:	fe8698e3          	bne	a3,s0,80000fdc <printf+0x250>
    80000ff0:	0307879b          	addiw	a5,a5,48
    80000ff4:	0ff7f513          	zext.b	a0,a5
    80000ff8:	fffb8b9b          	addiw	s7,s7,-1
    80000ffc:	02eb7b33          	remu	s6,s6,a4
    80001000:	b01ff0ef          	jal	ra,80000b00 <putch>
    80001004:	000b869b          	sext.w	a3,s7
    80001008:	000b0b1b          	sext.w	s6,s6
    8000100c:	fa8b96e3          	bne	s7,s0,80000fb8 <printf+0x22c>
    80001010:	030b051b          	addiw	a0,s6,48
    80001014:	0ff57513          	zext.b	a0,a0
    80001018:	ae9ff0ef          	jal	ra,80000b00 <putch>
    8000101c:	002a8a93          	addi	s5,s5,2
    80001020:	e15ff06f          	j	80000e34 <printf+0xa8>
    80001024:	00813783          	ld	a5,8(sp)
    80001028:	0007bb03          	ld	s6,0(a5)
    8000102c:	00878793          	addi	a5,a5,8
    80001030:	00f13423          	sd	a5,8(sp)
    80001034:	000b0513          	mv	a0,s6
    80001038:	0d8000ef          	jal	ra,80001110 <strlen>
    8000103c:	00050793          	mv	a5,a0
    80001040:	000b4503          	lbu	a0,0(s6)
    80001044:	009784bb          	addw	s1,a5,s1
    80001048:	f20504e3          	beqz	a0,80000f70 <printf+0x1e4>
    8000104c:	001b0b13          	addi	s6,s6,1
    80001050:	ab1ff0ef          	jal	ra,80000b00 <putch>
    80001054:	000b4503          	lbu	a0,0(s6)
    80001058:	f0050ce3          	beqz	a0,80000f70 <printf+0x1e4>
    8000105c:	001b0b13          	addi	s6,s6,1
    80001060:	aa1ff0ef          	jal	ra,80000b00 <putch>
    80001064:	000b4503          	lbu	a0,0(s6)
    80001068:	fe0512e3          	bnez	a0,8000104c <printf+0x2c0>
    8000106c:	f05ff06f          	j	80000f70 <printf+0x1e4>
    80001070:	02500513          	li	a0,37
    80001074:	a8dff0ef          	jal	ra,80000b00 <putch>
    80001078:	0014849b          	addiw	s1,s1,1
    8000107c:	002a8a93          	addi	s5,s5,2
    80001080:	db5ff06f          	j	80000e34 <printf+0xa8>
    80001084:	000c0793          	mv	a5,s8
    80001088:	00000b93          	li	s7,0
    8000108c:	0047d793          	srli	a5,a5,0x4
    80001090:	001b8b9b          	addiw	s7,s7,1
    80001094:	fe079ce3          	bnez	a5,8000108c <printf+0x300>
    80001098:	009b84bb          	addw	s1,s7,s1
    8000109c:	e7dff06f          	j	80000f18 <printf+0x18c>
    800010a0:	02d00513          	li	a0,45
    800010a4:	41600b3b          	negw	s6,s6
    800010a8:	a59ff0ef          	jal	ra,80000b00 <putch>
    800010ac:	0014849b          	addiw	s1,s1,1
    800010b0:	000b0793          	mv	a5,s6
    800010b4:	00000b93          	li	s7,0
    800010b8:	00a00613          	li	a2,10
    800010bc:	00900693          	li	a3,9
    800010c0:	00078713          	mv	a4,a5
    800010c4:	001b8b9b          	addiw	s7,s7,1
    800010c8:	02c7d7b3          	divu	a5,a5,a2
    800010cc:	fee6eae3          	bltu	a3,a4,800010c0 <printf+0x334>
    800010d0:	009b84bb          	addw	s1,s7,s1
    800010d4:	ed9ff06f          	j	80000fac <printf+0x220>
    800010d8:	0375051b          	addiw	a0,a0,55
    800010dc:	0ff57513          	zext.b	a0,a0
    800010e0:	a21ff0ef          	jal	ra,80000b00 <putch>
    800010e4:	e20b9ce3          	bnez	s7,80000f1c <printf+0x190>
    800010e8:	e89ff06f          	j	80000f70 <printf+0x1e4>
    800010ec:	000c0693          	mv	a3,s8
    800010f0:	00000c13          	li	s8,0
    800010f4:	e65ff06f          	j	80000f58 <printf+0x1cc>
    800010f8:	00000513          	li	a0,0
    800010fc:	d45ff06f          	j	80000e40 <printf+0xb4>
    80001100:	fff00513          	li	a0,-1
    80001104:	d3dff06f          	j	80000e40 <printf+0xb4>
    80001108:	000b0793          	mv	a5,s6
    8000110c:	fa9ff06f          	j	800010b4 <printf+0x328>

0000000080001110 <strlen>:
    80001110:	02050663          	beqz	a0,8000113c <strlen+0x2c>
    80001114:	00054783          	lbu	a5,0(a0)
    80001118:	00050713          	mv	a4,a0
    8000111c:	00000513          	li	a0,0
    80001120:	00078c63          	beqz	a5,80001138 <strlen+0x28>
    80001124:	00150513          	addi	a0,a0,1
    80001128:	00a707b3          	add	a5,a4,a0
    8000112c:	0007c783          	lbu	a5,0(a5)
    80001130:	fe079ae3          	bnez	a5,80001124 <strlen+0x14>
    80001134:	00008067          	ret
    80001138:	00008067          	ret
    8000113c:	ff010113          	addi	sp,sp,-16
    80001140:	00800613          	li	a2,8
    80001144:	00000597          	auipc	a1,0x0
    80001148:	73458593          	addi	a1,a1,1844 # 80001878 <_etext+0x64c>
    8000114c:	00000517          	auipc	a0,0x0
    80001150:	76c50513          	addi	a0,a0,1900 # 800018b8 <_etext+0x68c>
    80001154:	00113423          	sd	ra,8(sp)
    80001158:	c35ff0ef          	jal	ra,80000d8c <printf>
    8000115c:	00100513          	li	a0,1
    80001160:	9b1ff0ef          	jal	ra,80000b10 <halt>

0000000080001164 <strcpy>:
    80001164:	02050263          	beqz	a0,80001188 <strcpy+0x24>
    80001168:	00050793          	mv	a5,a0
    8000116c:	00058e63          	beqz	a1,80001188 <strcpy+0x24>
    80001170:	0005c703          	lbu	a4,0(a1)
    80001174:	00178793          	addi	a5,a5,1
    80001178:	00158593          	addi	a1,a1,1
    8000117c:	fee78fa3          	sb	a4,-1(a5)
    80001180:	fe0718e3          	bnez	a4,80001170 <strcpy+0xc>
    80001184:	00008067          	ret
    80001188:	ff010113          	addi	sp,sp,-16
    8000118c:	01300613          	li	a2,19
    80001190:	00000597          	auipc	a1,0x0
    80001194:	6e858593          	addi	a1,a1,1768 # 80001878 <_etext+0x64c>
    80001198:	00000517          	auipc	a0,0x0
    8000119c:	72050513          	addi	a0,a0,1824 # 800018b8 <_etext+0x68c>
    800011a0:	00113423          	sd	ra,8(sp)
    800011a4:	be9ff0ef          	jal	ra,80000d8c <printf>
    800011a8:	00100513          	li	a0,1
    800011ac:	965ff0ef          	jal	ra,80000b10 <halt>

00000000800011b0 <strcmp>:
    800011b0:	04050a63          	beqz	a0,80001204 <strcmp+0x54>
    800011b4:	04058863          	beqz	a1,80001204 <strcmp+0x54>
    800011b8:	00054683          	lbu	a3,0(a0)
    800011bc:	00050713          	mv	a4,a0
    800011c0:	0005c503          	lbu	a0,0(a1)
    800011c4:	40a6853b          	subw	a0,a3,a0
    800011c8:	00050793          	mv	a5,a0
    800011cc:	02051063          	bnez	a0,800011ec <strcmp+0x3c>
    800011d0:	02068863          	beqz	a3,80001200 <strcmp+0x50>
    800011d4:	00174683          	lbu	a3,1(a4)
    800011d8:	0015c783          	lbu	a5,1(a1)
    800011dc:	00170713          	addi	a4,a4,1
    800011e0:	00158593          	addi	a1,a1,1
    800011e4:	40f687bb          	subw	a5,a3,a5
    800011e8:	fe0784e3          	beqz	a5,800011d0 <strcmp+0x20>
    800011ec:	fff00513          	li	a0,-1
    800011f0:	0007d463          	bgez	a5,800011f8 <strcmp+0x48>
    800011f4:	00008067          	ret
    800011f8:	00f03533          	snez	a0,a5
    800011fc:	00008067          	ret
    80001200:	00008067          	ret
    80001204:	ff010113          	addi	sp,sp,-16
    80001208:	03500613          	li	a2,53
    8000120c:	00000597          	auipc	a1,0x0
    80001210:	66c58593          	addi	a1,a1,1644 # 80001878 <_etext+0x64c>
    80001214:	00000517          	auipc	a0,0x0
    80001218:	6a450513          	addi	a0,a0,1700 # 800018b8 <_etext+0x68c>
    8000121c:	00113423          	sd	ra,8(sp)
    80001220:	b6dff0ef          	jal	ra,80000d8c <printf>
    80001224:	00100513          	li	a0,1
    80001228:	8e9ff0ef          	jal	ra,80000b10 <halt>
