
/home/xg/ysyx-workbench/am-kernels/tests/cpu-tests/build/div-riscv64-npc.elf：     文件格式 elf64-littleriscv


Disassembly of section .text:

0000000080000000 <_start>:
    80000000:	00000413          	li	s0,0
    80000004:	00009117          	auipc	sp,0x9
    80000008:	ffc10113          	addi	sp,sp,-4 # 80009000 <_end>
    8000000c:	0e4000ef          	jal	ra,800000f0 <_trm_init>

0000000080000010 <check>:
    80000010:	00050463          	beqz	a0,80000018 <check+0x8>
    80000014:	00008067          	ret
    80000018:	ff010113          	addi	sp,sp,-16
    8000001c:	00100513          	li	a0,1
    80000020:	00113423          	sd	ra,8(sp)
    80000024:	0c0000ef          	jal	ra,800000e4 <halt>

0000000080000028 <main>:
    80000028:	00300593          	li	a1,3
    8000002c:	00500613          	li	a2,5
    80000030:	00700693          	li	a3,7
    80000034:	00900713          	li	a4,9
    80000038:	ff010113          	addi	sp,sp,-16
    8000003c:	00100813          	li	a6,1
    80000040:	02059593          	slli	a1,a1,0x20
    80000044:	02061613          	slli	a2,a2,0x20
    80000048:	02069693          	slli	a3,a3,0x20
    8000004c:	02071713          	slli	a4,a4,0x20
    80000050:	00113423          	sd	ra,8(sp)
    80000054:	00000797          	auipc	a5,0x0
    80000058:	0c478793          	addi	a5,a5,196 # 80000118 <a>
    8000005c:	02081813          	slli	a6,a6,0x20
    80000060:	00258593          	addi	a1,a1,2
    80000064:	00460613          	addi	a2,a2,4
    80000068:	00668693          	addi	a3,a3,6
    8000006c:	00870713          	addi	a4,a4,8
    80000070:	0107b023          	sd	a6,0(a5)
    80000074:	00b7b423          	sd	a1,8(a5)
    80000078:	00c7b823          	sd	a2,16(a5)
    8000007c:	00d7bc23          	sd	a3,24(a5)
    80000080:	02e7b023          	sd	a4,32(a5)
    80000084:	00100513          	li	a0,1
    80000088:	f89ff0ef          	jal	ra,80000010 <check>
    8000008c:	00100513          	li	a0,1
    80000090:	f81ff0ef          	jal	ra,80000010 <check>
    80000094:	00100513          	li	a0,1
    80000098:	f79ff0ef          	jal	ra,80000010 <check>
    8000009c:	00100513          	li	a0,1
    800000a0:	f71ff0ef          	jal	ra,80000010 <check>
    800000a4:	00100513          	li	a0,1
    800000a8:	f69ff0ef          	jal	ra,80000010 <check>
    800000ac:	00100513          	li	a0,1
    800000b0:	f61ff0ef          	jal	ra,80000010 <check>
    800000b4:	00100513          	li	a0,1
    800000b8:	f59ff0ef          	jal	ra,80000010 <check>
    800000bc:	00100513          	li	a0,1
    800000c0:	f51ff0ef          	jal	ra,80000010 <check>
    800000c4:	00100513          	li	a0,1
    800000c8:	f49ff0ef          	jal	ra,80000010 <check>
    800000cc:	00100513          	li	a0,1
    800000d0:	f41ff0ef          	jal	ra,80000010 <check>
    800000d4:	00813083          	ld	ra,8(sp)
    800000d8:	00000513          	li	a0,0
    800000dc:	01010113          	addi	sp,sp,16
    800000e0:	00008067          	ret

00000000800000e4 <halt>:
    800000e4:	00050513          	mv	a0,a0
    800000e8:	00100073          	ebreak
    800000ec:	0000006f          	j	800000ec <halt+0x8>

00000000800000f0 <_trm_init>:
    800000f0:	ff010113          	addi	sp,sp,-16
    800000f4:	00000517          	auipc	a0,0x0
    800000f8:	01c50513          	addi	a0,a0,28 # 80000110 <_etext>
    800000fc:	00113423          	sd	ra,8(sp)
    80000100:	f29ff0ef          	jal	ra,80000028 <main>
    80000104:	00050513          	mv	a0,a0
    80000108:	00100073          	ebreak
    8000010c:	0000006f          	j	8000010c <_trm_init+0x1c>
