
/home/xg/ysyx-workbench/am-kernels/tests/cpu-tests/build/fact-riscv64-npc.elf：     文件格式 elf64-littleriscv


Disassembly of section .text:

0000000080000000 <_start>:
    80000000:	00000413          	li	s0,0
    80000004:	00009117          	auipc	sp,0x9
    80000008:	ffc10113          	addi	sp,sp,-4 # 80009000 <_end>
    8000000c:	1b4000ef          	jal	ra,800001c0 <_trm_init>

0000000080000010 <check>:
    80000010:	00050463          	beqz	a0,80000018 <check+0x8>
    80000014:	00008067          	ret
    80000018:	ff010113          	addi	sp,sp,-16
    8000001c:	00100513          	li	a0,1
    80000020:	00113423          	sd	ra,8(sp)
    80000024:	190000ef          	jal	ra,800001b4 <halt>

0000000080000028 <main>:
    80000028:	fe010113          	addi	sp,sp,-32
    8000002c:	00913423          	sd	s1,8(sp)
    80000030:	00000497          	auipc	s1,0x0
    80000034:	1b848493          	addi	s1,s1,440 # 800001e8 <ans>
    80000038:	0004a503          	lw	a0,0(s1)
    8000003c:	00813823          	sd	s0,16(sp)
    80000040:	01213023          	sd	s2,0(sp)
    80000044:	fff50513          	addi	a0,a0,-1
    80000048:	00000417          	auipc	s0,0x0
    8000004c:	1d840413          	addi	s0,s0,472 # 80000220 <f>
    80000050:	00100913          	li	s2,1
    80000054:	00153513          	seqz	a0,a0
    80000058:	00113c23          	sd	ra,24(sp)
    8000005c:	01242023          	sw	s2,0(s0)
    80000060:	fb1ff0ef          	jal	ra,80000010 <check>
    80000064:	0044a503          	lw	a0,4(s1)
    80000068:	01242223          	sw	s2,4(s0)
    8000006c:	fff50513          	addi	a0,a0,-1
    80000070:	00153513          	seqz	a0,a0
    80000074:	f9dff0ef          	jal	ra,80000010 <check>
    80000078:	0084a503          	lw	a0,8(s1)
    8000007c:	00200793          	li	a5,2
    80000080:	00f42423          	sw	a5,8(s0)
    80000084:	ffe50513          	addi	a0,a0,-2
    80000088:	00153513          	seqz	a0,a0
    8000008c:	f85ff0ef          	jal	ra,80000010 <check>
    80000090:	00c4a503          	lw	a0,12(s1)
    80000094:	00600793          	li	a5,6
    80000098:	00f42623          	sw	a5,12(s0)
    8000009c:	ffa50513          	addi	a0,a0,-6
    800000a0:	00153513          	seqz	a0,a0
    800000a4:	f6dff0ef          	jal	ra,80000010 <check>
    800000a8:	0104a503          	lw	a0,16(s1)
    800000ac:	01800793          	li	a5,24
    800000b0:	00f42823          	sw	a5,16(s0)
    800000b4:	fe850513          	addi	a0,a0,-24
    800000b8:	00153513          	seqz	a0,a0
    800000bc:	f55ff0ef          	jal	ra,80000010 <check>
    800000c0:	0144a503          	lw	a0,20(s1)
    800000c4:	07800793          	li	a5,120
    800000c8:	00f42a23          	sw	a5,20(s0)
    800000cc:	f8850513          	addi	a0,a0,-120
    800000d0:	00153513          	seqz	a0,a0
    800000d4:	f3dff0ef          	jal	ra,80000010 <check>
    800000d8:	0184a503          	lw	a0,24(s1)
    800000dc:	2d000793          	li	a5,720
    800000e0:	00f42c23          	sw	a5,24(s0)
    800000e4:	d3050513          	addi	a0,a0,-720
    800000e8:	00153513          	seqz	a0,a0
    800000ec:	f25ff0ef          	jal	ra,80000010 <check>
    800000f0:	01c4a503          	lw	a0,28(s1)
    800000f4:	000017b7          	lui	a5,0x1
    800000f8:	3b078793          	addi	a5,a5,944 # 13b0 <_entry_offset+0x13b0>
    800000fc:	40f50533          	sub	a0,a0,a5
    80000100:	00153513          	seqz	a0,a0
    80000104:	00f42e23          	sw	a5,28(s0)
    80000108:	f09ff0ef          	jal	ra,80000010 <check>
    8000010c:	0204a503          	lw	a0,32(s1)
    80000110:	0000a7b7          	lui	a5,0xa
    80000114:	d8078793          	addi	a5,a5,-640 # 9d80 <_entry_offset+0x9d80>
    80000118:	40f50533          	sub	a0,a0,a5
    8000011c:	00153513          	seqz	a0,a0
    80000120:	02f42023          	sw	a5,32(s0)
    80000124:	eedff0ef          	jal	ra,80000010 <check>
    80000128:	0244a503          	lw	a0,36(s1)
    8000012c:	000597b7          	lui	a5,0x59
    80000130:	98078793          	addi	a5,a5,-1664 # 58980 <_entry_offset+0x58980>
    80000134:	40f50533          	sub	a0,a0,a5
    80000138:	00153513          	seqz	a0,a0
    8000013c:	02f42223          	sw	a5,36(s0)
    80000140:	ed1ff0ef          	jal	ra,80000010 <check>
    80000144:	0284a503          	lw	a0,40(s1)
    80000148:	003767b7          	lui	a5,0x376
    8000014c:	f0078793          	addi	a5,a5,-256 # 375f00 <_entry_offset+0x375f00>
    80000150:	40f50533          	sub	a0,a0,a5
    80000154:	00153513          	seqz	a0,a0
    80000158:	02f42423          	sw	a5,40(s0)
    8000015c:	eb5ff0ef          	jal	ra,80000010 <check>
    80000160:	02c4a503          	lw	a0,44(s1)
    80000164:	026117b7          	lui	a5,0x2611
    80000168:	50078793          	addi	a5,a5,1280 # 2611500 <_entry_offset+0x2611500>
    8000016c:	40f50533          	sub	a0,a0,a5
    80000170:	00153513          	seqz	a0,a0
    80000174:	02f42623          	sw	a5,44(s0)
    80000178:	e99ff0ef          	jal	ra,80000010 <check>
    8000017c:	0304a503          	lw	a0,48(s1)
    80000180:	1c8d07b7          	lui	a5,0x1c8d0
    80000184:	c0078793          	addi	a5,a5,-1024 # 1c8cfc00 <_entry_offset+0x1c8cfc00>
    80000188:	40f50533          	sub	a0,a0,a5
    8000018c:	00153513          	seqz	a0,a0
    80000190:	02f42823          	sw	a5,48(s0)
    80000194:	e7dff0ef          	jal	ra,80000010 <check>
    80000198:	01813083          	ld	ra,24(sp)
    8000019c:	01013403          	ld	s0,16(sp)
    800001a0:	00813483          	ld	s1,8(sp)
    800001a4:	00013903          	ld	s2,0(sp)
    800001a8:	00000513          	li	a0,0
    800001ac:	02010113          	addi	sp,sp,32
    800001b0:	00008067          	ret

00000000800001b4 <halt>:
    800001b4:	00050513          	mv	a0,a0
    800001b8:	00100073          	ebreak
    800001bc:	0000006f          	j	800001bc <halt+0x8>

00000000800001c0 <_trm_init>:
    800001c0:	ff010113          	addi	sp,sp,-16
    800001c4:	00000517          	auipc	a0,0x0
    800001c8:	01c50513          	addi	a0,a0,28 # 800001e0 <_etext>
    800001cc:	00113423          	sd	ra,8(sp)
    800001d0:	e59ff0ef          	jal	ra,80000028 <main>
    800001d4:	00050513          	mv	a0,a0
    800001d8:	00100073          	ebreak
    800001dc:	0000006f          	j	800001dc <_trm_init+0x1c>
