
/home/xg/ysyx-workbench/am-kernels/tests/cpu-tests/build/goldbach-riscv64-npc.elf：     文件格式 elf64-littleriscv


Disassembly of section .text:

0000000080000000 <_start>:
    80000000:	00000413          	li	s0,0
    80000004:	00009117          	auipc	sp,0x9
    80000008:	ffc10113          	addi	sp,sp,-4 # 80009000 <_end>
    8000000c:	0f4000ef          	jal	ra,80000100 <_trm_init>

0000000080000010 <check>:
    80000010:	00050463          	beqz	a0,80000018 <check+0x8>
    80000014:	00008067          	ret
    80000018:	ff010113          	addi	sp,sp,-16
    8000001c:	00100513          	li	a0,1
    80000020:	00113423          	sd	ra,8(sp)
    80000024:	0d0000ef          	jal	ra,800000f4 <halt>

0000000080000028 <main>:
    80000028:	fd010113          	addi	sp,sp,-48
    8000002c:	02813023          	sd	s0,32(sp)
    80000030:	00913c23          	sd	s1,24(sp)
    80000034:	01213823          	sd	s2,16(sp)
    80000038:	01313423          	sd	s3,8(sp)
    8000003c:	02113423          	sd	ra,40(sp)
    80000040:	00400913          	li	s2,4
    80000044:	00200413          	li	s0,2
    80000048:	00100993          	li	s3,1
    8000004c:	02000493          	li	s1,32
    80000050:	ffe9059b          	addiw	a1,s2,-2
    80000054:	00200693          	li	a3,2
    80000058:	02868463          	beq	a3,s0,80000080 <main+0x58>
    8000005c:	0016f793          	andi	a5,a3,1
    80000060:	08078063          	beqz	a5,800000e0 <main+0xb8>
    80000064:	00200713          	li	a4,2
    80000068:	00c0006f          	j	80000074 <main+0x4c>
    8000006c:	02f6e7bb          	remw	a5,a3,a5
    80000070:	06078863          	beqz	a5,800000e0 <main+0xb8>
    80000074:	0017071b          	addiw	a4,a4,1
    80000078:	00070793          	mv	a5,a4
    8000007c:	fed718e3          	bne	a4,a3,8000006c <main+0x44>
    80000080:	0005861b          	sext.w	a2,a1
    80000084:	04b9de63          	bge	s3,a1,800000e0 <main+0xb8>
    80000088:	02860463          	beq	a2,s0,800000b0 <main+0x88>
    8000008c:	0015f793          	andi	a5,a1,1
    80000090:	04078863          	beqz	a5,800000e0 <main+0xb8>
    80000094:	00200713          	li	a4,2
    80000098:	00c0006f          	j	800000a4 <main+0x7c>
    8000009c:	02f667bb          	remw	a5,a2,a5
    800000a0:	04078063          	beqz	a5,800000e0 <main+0xb8>
    800000a4:	0017071b          	addiw	a4,a4,1
    800000a8:	00070793          	mv	a5,a4
    800000ac:	fee618e3          	bne	a2,a4,8000009c <main+0x74>
    800000b0:	00100513          	li	a0,1
    800000b4:	0029091b          	addiw	s2,s2,2
    800000b8:	f59ff0ef          	jal	ra,80000010 <check>
    800000bc:	f8991ae3          	bne	s2,s1,80000050 <main+0x28>
    800000c0:	02813083          	ld	ra,40(sp)
    800000c4:	02013403          	ld	s0,32(sp)
    800000c8:	01813483          	ld	s1,24(sp)
    800000cc:	01013903          	ld	s2,16(sp)
    800000d0:	00813983          	ld	s3,8(sp)
    800000d4:	00000513          	li	a0,0
    800000d8:	03010113          	addi	sp,sp,48
    800000dc:	00008067          	ret
    800000e0:	0016869b          	addiw	a3,a3,1
    800000e4:	fff5859b          	addiw	a1,a1,-1
    800000e8:	f72698e3          	bne	a3,s2,80000058 <main+0x30>
    800000ec:	00000513          	li	a0,0
    800000f0:	fc5ff06f          	j	800000b4 <main+0x8c>

00000000800000f4 <halt>:
    800000f4:	00050513          	mv	a0,a0
    800000f8:	00100073          	ebreak
    800000fc:	0000006f          	j	800000fc <halt+0x8>

0000000080000100 <_trm_init>:
    80000100:	ff010113          	addi	sp,sp,-16
    80000104:	00000517          	auipc	a0,0x0
    80000108:	01c50513          	addi	a0,a0,28 # 80000120 <_etext>
    8000010c:	00113423          	sd	ra,8(sp)
    80000110:	f19ff0ef          	jal	ra,80000028 <main>
    80000114:	00050513          	mv	a0,a0
    80000118:	00100073          	ebreak
    8000011c:	0000006f          	j	8000011c <_trm_init+0x1c>
