
/home/xg/ysyx-workbench/am-kernels/tests/cpu-tests/build/hello-str-riscv64-npc.elf：     文件格式 elf64-littleriscv


Disassembly of section .text:

0000000080000000 <_start>:
    80000000:	00000413          	li	s0,0
    80000004:	00009117          	auipc	sp,0x9
    80000008:	ffc10113          	addi	sp,sp,-4 # 80009000 <_end>
    8000000c:	0f8000ef          	jal	ra,80000104 <_trm_init>

0000000080000010 <check>:
    80000010:	00050463          	beqz	a0,80000018 <check+0x8>
    80000014:	00008067          	ret
    80000018:	ff010113          	addi	sp,sp,-16
    8000001c:	00100513          	li	a0,1
    80000020:	00113423          	sd	ra,8(sp)
    80000024:	0d4000ef          	jal	ra,800000f8 <halt>

0000000080000028 <main>:
    80000028:	ff010113          	addi	sp,sp,-16
    8000002c:	00813023          	sd	s0,0(sp)
    80000030:	00001417          	auipc	s0,0x1
    80000034:	97040413          	addi	s0,s0,-1680 # 800009a0 <buf>
    80000038:	00001617          	auipc	a2,0x1
    8000003c:	84060613          	addi	a2,a2,-1984 # 80000878 <_etext>
    80000040:	00001597          	auipc	a1,0x1
    80000044:	84858593          	addi	a1,a1,-1976 # 80000888 <_etext+0x10>
    80000048:	00040513          	mv	a0,s0
    8000004c:	00113423          	sd	ra,8(sp)
    80000050:	464000ef          	jal	ra,800004b4 <sprintf>
    80000054:	00001597          	auipc	a1,0x1
    80000058:	82458593          	addi	a1,a1,-2012 # 80000878 <_etext>
    8000005c:	00040513          	mv	a0,s0
    80000060:	79c000ef          	jal	ra,800007fc <strcmp>
    80000064:	00153513          	seqz	a0,a0
    80000068:	fa9ff0ef          	jal	ra,80000010 <check>
    8000006c:	00200713          	li	a4,2
    80000070:	00100693          	li	a3,1
    80000074:	00100613          	li	a2,1
    80000078:	00001597          	auipc	a1,0x1
    8000007c:	81858593          	addi	a1,a1,-2024 # 80000890 <_etext+0x18>
    80000080:	00040513          	mv	a0,s0
    80000084:	430000ef          	jal	ra,800004b4 <sprintf>
    80000088:	00001597          	auipc	a1,0x1
    8000008c:	81858593          	addi	a1,a1,-2024 # 800008a0 <_etext+0x28>
    80000090:	00040513          	mv	a0,s0
    80000094:	768000ef          	jal	ra,800007fc <strcmp>
    80000098:	00153513          	seqz	a0,a0
    8000009c:	f75ff0ef          	jal	ra,80000010 <check>
    800000a0:	00c00713          	li	a4,12
    800000a4:	00a00693          	li	a3,10
    800000a8:	00200613          	li	a2,2
    800000ac:	00000597          	auipc	a1,0x0
    800000b0:	7e458593          	addi	a1,a1,2020 # 80000890 <_etext+0x18>
    800000b4:	00040513          	mv	a0,s0
    800000b8:	3fc000ef          	jal	ra,800004b4 <sprintf>
    800000bc:	00000597          	auipc	a1,0x0
    800000c0:	7f458593          	addi	a1,a1,2036 # 800008b0 <_etext+0x38>
    800000c4:	00040513          	mv	a0,s0
    800000c8:	734000ef          	jal	ra,800007fc <strcmp>
    800000cc:	00153513          	seqz	a0,a0
    800000d0:	f41ff0ef          	jal	ra,80000010 <check>
    800000d4:	00813083          	ld	ra,8(sp)
    800000d8:	00013403          	ld	s0,0(sp)
    800000dc:	00000513          	li	a0,0
    800000e0:	01010113          	addi	sp,sp,16
    800000e4:	00008067          	ret

00000000800000e8 <putch>:
    800000e8:	00500793          	li	a5,5
    800000ec:	01d79793          	slli	a5,a5,0x1d
    800000f0:	3ea78c23          	sb	a0,1016(a5)
    800000f4:	00008067          	ret

00000000800000f8 <halt>:
    800000f8:	00050513          	mv	a0,a0
    800000fc:	00100073          	ebreak
    80000100:	0000006f          	j	80000100 <halt+0x8>

0000000080000104 <_trm_init>:
    80000104:	ff010113          	addi	sp,sp,-16
    80000108:	00001517          	auipc	a0,0x1
    8000010c:	89050513          	addi	a0,a0,-1904 # 80000998 <mainargs>
    80000110:	00113423          	sd	ra,8(sp)
    80000114:	f15ff0ef          	jal	ra,80000028 <main>
    80000118:	00050513          	mv	a0,a0
    8000011c:	00100073          	ebreak
    80000120:	0000006f          	j	80000120 <_trm_init+0x1c>

0000000080000124 <printf>:
    80000124:	f5010113          	addi	sp,sp,-176
    80000128:	06113423          	sd	ra,104(sp)
    8000012c:	06813023          	sd	s0,96(sp)
    80000130:	04913c23          	sd	s1,88(sp)
    80000134:	05213823          	sd	s2,80(sp)
    80000138:	05313423          	sd	s3,72(sp)
    8000013c:	05413023          	sd	s4,64(sp)
    80000140:	03513c23          	sd	s5,56(sp)
    80000144:	03613823          	sd	s6,48(sp)
    80000148:	03713423          	sd	s7,40(sp)
    8000014c:	03813023          	sd	s8,32(sp)
    80000150:	01913c23          	sd	s9,24(sp)
    80000154:	06b13c23          	sd	a1,120(sp)
    80000158:	08c13023          	sd	a2,128(sp)
    8000015c:	08d13423          	sd	a3,136(sp)
    80000160:	08e13823          	sd	a4,144(sp)
    80000164:	08f13c23          	sd	a5,152(sp)
    80000168:	0b013023          	sd	a6,160(sp)
    8000016c:	0b113423          	sd	a7,168(sp)
    80000170:	32050a63          	beqz	a0,800004a4 <printf+0x380>
    80000174:	00050b13          	mv	s6,a0
    80000178:	00054503          	lbu	a0,0(a0)
    8000017c:	07810793          	addi	a5,sp,120
    80000180:	00f13423          	sd	a5,8(sp)
    80000184:	30050c63          	beqz	a0,8000049c <printf+0x378>
    80000188:	00000493          	li	s1,0
    8000018c:	01c00993          	li	s3,28
    80000190:	00000917          	auipc	s2,0x0
    80000194:	73090913          	addi	s2,s2,1840 # 800008c0 <_etext+0x48>
    80000198:	06400a13          	li	s4,100
    8000019c:	00100a93          	li	s5,1
    800001a0:	fff00413          	li	s0,-1
    800001a4:	ff75079b          	addiw	a5,a0,-9
    800001a8:	0ff7f793          	zext.b	a5,a5
    800001ac:	001b0b93          	addi	s7,s6,1
    800001b0:	00f9ec63          	bltu	s3,a5,800001c8 <printf+0xa4>
    800001b4:	00279793          	slli	a5,a5,0x2
    800001b8:	012787b3          	add	a5,a5,s2
    800001bc:	0007a783          	lw	a5,0(a5)
    800001c0:	012787b3          	add	a5,a5,s2
    800001c4:	00078067          	jr	a5
    800001c8:	f21ff0ef          	jal	ra,800000e8 <putch>
    800001cc:	0014849b          	addiw	s1,s1,1
    800001d0:	000b8b13          	mv	s6,s7
    800001d4:	000b4503          	lbu	a0,0(s6)
    800001d8:	fc0516e3          	bnez	a0,800001a4 <printf+0x80>
    800001dc:	0004851b          	sext.w	a0,s1
    800001e0:	06813083          	ld	ra,104(sp)
    800001e4:	06013403          	ld	s0,96(sp)
    800001e8:	05813483          	ld	s1,88(sp)
    800001ec:	05013903          	ld	s2,80(sp)
    800001f0:	04813983          	ld	s3,72(sp)
    800001f4:	04013a03          	ld	s4,64(sp)
    800001f8:	03813a83          	ld	s5,56(sp)
    800001fc:	03013b03          	ld	s6,48(sp)
    80000200:	02813b83          	ld	s7,40(sp)
    80000204:	02013c03          	ld	s8,32(sp)
    80000208:	01813c83          	ld	s9,24(sp)
    8000020c:	0b010113          	addi	sp,sp,176
    80000210:	00008067          	ret
    80000214:	001b4783          	lbu	a5,1(s6)
    80000218:	11478c63          	beq	a5,s4,80000330 <printf+0x20c>
    8000021c:	06fa6a63          	bltu	s4,a5,80000290 <printf+0x16c>
    80000220:	02500713          	li	a4,37
    80000224:	18e78663          	beq	a5,a4,800003b0 <printf+0x28c>
    80000228:	06300713          	li	a4,99
    8000022c:	0ee79863          	bne	a5,a4,8000031c <printf+0x1f8>
    80000230:	00813783          	ld	a5,8(sp)
    80000234:	0014849b          	addiw	s1,s1,1
    80000238:	002b0b13          	addi	s6,s6,2
    8000023c:	0007c503          	lbu	a0,0(a5)
    80000240:	00878793          	addi	a5,a5,8
    80000244:	00f13423          	sd	a5,8(sp)
    80000248:	ea1ff0ef          	jal	ra,800000e8 <putch>
    8000024c:	f89ff06f          	j	800001d4 <printf+0xb0>
    80000250:	02000513          	li	a0,32
    80000254:	e95ff0ef          	jal	ra,800000e8 <putch>
    80000258:	0014849b          	addiw	s1,s1,1
    8000025c:	f75ff06f          	j	800001d0 <printf+0xac>
    80000260:	00d00513          	li	a0,13
    80000264:	e85ff0ef          	jal	ra,800000e8 <putch>
    80000268:	0014849b          	addiw	s1,s1,1
    8000026c:	f65ff06f          	j	800001d0 <printf+0xac>
    80000270:	00a00513          	li	a0,10
    80000274:	e75ff0ef          	jal	ra,800000e8 <putch>
    80000278:	0014849b          	addiw	s1,s1,1
    8000027c:	f55ff06f          	j	800001d0 <printf+0xac>
    80000280:	00900513          	li	a0,9
    80000284:	e65ff0ef          	jal	ra,800000e8 <putch>
    80000288:	0044849b          	addiw	s1,s1,4
    8000028c:	f45ff06f          	j	800001d0 <printf+0xac>
    80000290:	07300713          	li	a4,115
    80000294:	0ce78863          	beq	a5,a4,80000364 <printf+0x240>
    80000298:	07800713          	li	a4,120
    8000029c:	08e79063          	bne	a5,a4,8000031c <printf+0x1f8>
    800002a0:	00813783          	ld	a5,8(sp)
    800002a4:	0007bc83          	ld	s9,0(a5)
    800002a8:	00878793          	addi	a5,a5,8
    800002ac:	00f13423          	sd	a5,8(sp)
    800002b0:	100c9a63          	bnez	s9,800003c4 <printf+0x2a0>
    800002b4:	0014849b          	addiw	s1,s1,1
    800002b8:	00100c13          	li	s8,1
    800002bc:	00900b93          	li	s7,9
    800002c0:	000c0793          	mv	a5,s8
    800002c4:	fffc0c1b          	addiw	s8,s8,-1
    800002c8:	ffe7879b          	addiw	a5,a5,-2
    800002cc:	1c0c0263          	beqz	s8,80000490 <printf+0x36c>
    800002d0:	00078713          	mv	a4,a5
    800002d4:	00100693          	li	a3,1
    800002d8:	fff7071b          	addiw	a4,a4,-1
    800002dc:	00469693          	slli	a3,a3,0x4
    800002e0:	fe871ce3          	bne	a4,s0,800002d8 <printf+0x1b4>
    800002e4:	02dcd6b3          	divu	a3,s9,a3
    800002e8:	00100713          	li	a4,1
    800002ec:	fff7879b          	addiw	a5,a5,-1
    800002f0:	00471713          	slli	a4,a4,0x4
    800002f4:	fe879ce3          	bne	a5,s0,800002ec <printf+0x1c8>
    800002f8:	02ecfcb3          	remu	s9,s9,a4
    800002fc:	0ff6f513          	zext.b	a0,a3
    80000300:	16dbee63          	bltu	s7,a3,8000047c <printf+0x358>
    80000304:	0305051b          	addiw	a0,a0,48
    80000308:	0ff57513          	zext.b	a0,a0
    8000030c:	dddff0ef          	jal	ra,800000e8 <putch>
    80000310:	fa0c18e3          	bnez	s8,800002c0 <printf+0x19c>
    80000314:	002b0b13          	addi	s6,s6,2
    80000318:	ebdff06f          	j	800001d4 <printf+0xb0>
    8000031c:	02000513          	li	a0,32
    80000320:	dc9ff0ef          	jal	ra,800000e8 <putch>
    80000324:	0014849b          	addiw	s1,s1,1
    80000328:	000b8b13          	mv	s6,s7
    8000032c:	ea9ff06f          	j	800001d4 <printf+0xb0>
    80000330:	00813783          	ld	a5,8(sp)
    80000334:	0007ac03          	lw	s8,0(a5)
    80000338:	00878793          	addi	a5,a5,8
    8000033c:	00f13423          	sd	a5,8(sp)
    80000340:	0a0c4063          	bltz	s8,800003e0 <printf+0x2bc>
    80000344:	160c1463          	bnez	s8,800004ac <printf+0x388>
    80000348:	0014849b          	addiw	s1,s1,1
    8000034c:	00000c13          	li	s8,0
    80000350:	030c051b          	addiw	a0,s8,48
    80000354:	0ff57513          	zext.b	a0,a0
    80000358:	d91ff0ef          	jal	ra,800000e8 <putch>
    8000035c:	002b0b13          	addi	s6,s6,2
    80000360:	e75ff06f          	j	800001d4 <printf+0xb0>
    80000364:	00813783          	ld	a5,8(sp)
    80000368:	0007bb83          	ld	s7,0(a5)
    8000036c:	00878793          	addi	a5,a5,8
    80000370:	00f13423          	sd	a5,8(sp)
    80000374:	000b8513          	mv	a0,s7
    80000378:	398000ef          	jal	ra,80000710 <strlen>
    8000037c:	00050793          	mv	a5,a0
    80000380:	000bc503          	lbu	a0,0(s7)
    80000384:	009784bb          	addw	s1,a5,s1
    80000388:	f80506e3          	beqz	a0,80000314 <printf+0x1f0>
    8000038c:	001b8b93          	addi	s7,s7,1
    80000390:	d59ff0ef          	jal	ra,800000e8 <putch>
    80000394:	000bc503          	lbu	a0,0(s7)
    80000398:	f6050ee3          	beqz	a0,80000314 <printf+0x1f0>
    8000039c:	001b8b93          	addi	s7,s7,1
    800003a0:	d49ff0ef          	jal	ra,800000e8 <putch>
    800003a4:	000bc503          	lbu	a0,0(s7)
    800003a8:	fe0512e3          	bnez	a0,8000038c <printf+0x268>
    800003ac:	f69ff06f          	j	80000314 <printf+0x1f0>
    800003b0:	02500513          	li	a0,37
    800003b4:	d35ff0ef          	jal	ra,800000e8 <putch>
    800003b8:	0014849b          	addiw	s1,s1,1
    800003bc:	002b0b13          	addi	s6,s6,2
    800003c0:	e15ff06f          	j	800001d4 <printf+0xb0>
    800003c4:	000c8793          	mv	a5,s9
    800003c8:	00000c13          	li	s8,0
    800003cc:	0047d793          	srli	a5,a5,0x4
    800003d0:	001c0c1b          	addiw	s8,s8,1
    800003d4:	fe079ce3          	bnez	a5,800003cc <printf+0x2a8>
    800003d8:	009c04bb          	addw	s1,s8,s1
    800003dc:	ee1ff06f          	j	800002bc <printf+0x198>
    800003e0:	02d00513          	li	a0,45
    800003e4:	41800c3b          	negw	s8,s8
    800003e8:	d01ff0ef          	jal	ra,800000e8 <putch>
    800003ec:	0014849b          	addiw	s1,s1,1
    800003f0:	000c0713          	mv	a4,s8
    800003f4:	00000793          	li	a5,0
    800003f8:	00a00593          	li	a1,10
    800003fc:	00900613          	li	a2,9
    80000400:	00070693          	mv	a3,a4
    80000404:	00078b93          	mv	s7,a5
    80000408:	02b75733          	divu	a4,a4,a1
    8000040c:	0017879b          	addiw	a5,a5,1
    80000410:	fed668e3          	bltu	a2,a3,80000400 <printf+0x2dc>
    80000414:	009784bb          	addw	s1,a5,s1
    80000418:	fffb8b9b          	addiw	s7,s7,-1
    8000041c:	f3578ae3          	beq	a5,s5,80000350 <printf+0x22c>
    80000420:	000b8713          	mv	a4,s7
    80000424:	00100793          	li	a5,1
    80000428:	00279693          	slli	a3,a5,0x2
    8000042c:	00f687b3          	add	a5,a3,a5
    80000430:	fff7071b          	addiw	a4,a4,-1
    80000434:	00179793          	slli	a5,a5,0x1
    80000438:	fe8718e3          	bne	a4,s0,80000428 <printf+0x304>
    8000043c:	000b8693          	mv	a3,s7
    80000440:	00100713          	li	a4,1
    80000444:	02fc57b3          	divu	a5,s8,a5
    80000448:	00271613          	slli	a2,a4,0x2
    8000044c:	00e60733          	add	a4,a2,a4
    80000450:	fff6869b          	addiw	a3,a3,-1
    80000454:	00171713          	slli	a4,a4,0x1
    80000458:	fe8698e3          	bne	a3,s0,80000448 <printf+0x324>
    8000045c:	0307879b          	addiw	a5,a5,48
    80000460:	0ff7f513          	zext.b	a0,a5
    80000464:	02ec7c33          	remu	s8,s8,a4
    80000468:	c81ff0ef          	jal	ra,800000e8 <putch>
    8000046c:	fffb879b          	addiw	a5,s7,-1
    80000470:	ee0b80e3          	beqz	s7,80000350 <printf+0x22c>
    80000474:	00078b93          	mv	s7,a5
    80000478:	fa9ff06f          	j	80000420 <printf+0x2fc>
    8000047c:	0375051b          	addiw	a0,a0,55
    80000480:	0ff57513          	zext.b	a0,a0
    80000484:	c65ff0ef          	jal	ra,800000e8 <putch>
    80000488:	e20c1ce3          	bnez	s8,800002c0 <printf+0x19c>
    8000048c:	e89ff06f          	j	80000314 <printf+0x1f0>
    80000490:	000c8693          	mv	a3,s9
    80000494:	00000c93          	li	s9,0
    80000498:	e65ff06f          	j	800002fc <printf+0x1d8>
    8000049c:	00000513          	li	a0,0
    800004a0:	d41ff06f          	j	800001e0 <printf+0xbc>
    800004a4:	fff00513          	li	a0,-1
    800004a8:	d39ff06f          	j	800001e0 <printf+0xbc>
    800004ac:	000c0713          	mv	a4,s8
    800004b0:	f45ff06f          	j	800003f4 <printf+0x2d0>

00000000800004b4 <sprintf>:
    800004b4:	f6010113          	addi	sp,sp,-160
    800004b8:	06813023          	sd	s0,96(sp)
    800004bc:	00058413          	mv	s0,a1
    800004c0:	00000597          	auipc	a1,0x0
    800004c4:	4d058593          	addi	a1,a1,1232 # 80000990 <_etext+0x118>
    800004c8:	04913c23          	sd	s1,88(sp)
    800004cc:	05213823          	sd	s2,80(sp)
    800004d0:	08e13023          	sd	a4,128(sp)
    800004d4:	08f13423          	sd	a5,136(sp)
    800004d8:	06113423          	sd	ra,104(sp)
    800004dc:	05313423          	sd	s3,72(sp)
    800004e0:	05413023          	sd	s4,64(sp)
    800004e4:	03513c23          	sd	s5,56(sp)
    800004e8:	03613823          	sd	s6,48(sp)
    800004ec:	03713423          	sd	s7,40(sp)
    800004f0:	03813023          	sd	s8,32(sp)
    800004f4:	01913c23          	sd	s9,24(sp)
    800004f8:	00050493          	mv	s1,a0
    800004fc:	06c13823          	sd	a2,112(sp)
    80000500:	06d13c23          	sd	a3,120(sp)
    80000504:	09013823          	sd	a6,144(sp)
    80000508:	09113c23          	sd	a7,152(sp)
    8000050c:	258000ef          	jal	ra,80000764 <strcpy>
    80000510:	00044783          	lbu	a5,0(s0)
    80000514:	07010713          	addi	a4,sp,112
    80000518:	00e13423          	sd	a4,8(sp)
    8000051c:	00000913          	li	s2,0
    80000520:	0a078e63          	beqz	a5,800005dc <sprintf+0x128>
    80000524:	00d00993          	li	s3,13
    80000528:	02500a13          	li	s4,37
    8000052c:	06400a93          	li	s5,100
    80000530:	fff00b13          	li	s6,-1
    80000534:	02c0006f          	j	80000560 <sprintf+0xac>
    80000538:	00011023          	sh	zero,0(sp)
    8000053c:	00010593          	mv	a1,sp
    80000540:	00048513          	mv	a0,s1
    80000544:	00f10023          	sb	a5,0(sp)
    80000548:	0019091b          	addiw	s2,s2,1
    8000054c:	264000ef          	jal	ra,800007b0 <strcat>
    80000550:	00040b93          	mv	s7,s0
    80000554:	001bc783          	lbu	a5,1(s7)
    80000558:	001b8413          	addi	s0,s7,1
    8000055c:	08078063          	beqz	a5,800005dc <sprintf+0x128>
    80000560:	00140b93          	addi	s7,s0,1
    80000564:	0b378863          	beq	a5,s3,80000614 <sprintf+0x160>
    80000568:	fd4798e3          	bne	a5,s4,80000538 <sprintf+0x84>
    8000056c:	00144783          	lbu	a5,1(s0)
    80000570:	0d578263          	beq	a5,s5,80000634 <sprintf+0x180>
    80000574:	07300713          	li	a4,115
    80000578:	fce79ee3          	bne	a5,a4,80000554 <sprintf+0xa0>
    8000057c:	00813783          	ld	a5,8(sp)
    80000580:	0007b403          	ld	s0,0(a5)
    80000584:	00878793          	addi	a5,a5,8
    80000588:	00f13423          	sd	a5,8(sp)
    8000058c:	00040513          	mv	a0,s0
    80000590:	180000ef          	jal	ra,80000710 <strlen>
    80000594:	0ff57793          	zext.b	a5,a0
    80000598:	02078a63          	beqz	a5,800005cc <sprintf+0x118>
    8000059c:	0ff57513          	zext.b	a0,a0
    800005a0:	00a40c33          	add	s8,s0,a0
    800005a4:	00011023          	sh	zero,0(sp)
    800005a8:	00044783          	lbu	a5,0(s0)
    800005ac:	00010593          	mv	a1,sp
    800005b0:	00140413          	addi	s0,s0,1
    800005b4:	00048513          	mv	a0,s1
    800005b8:	00f10023          	sb	a5,0(sp)
    800005bc:	1f4000ef          	jal	ra,800007b0 <strcat>
    800005c0:	ff8412e3          	bne	s0,s8,800005a4 <sprintf+0xf0>
    800005c4:	00040513          	mv	a0,s0
    800005c8:	148000ef          	jal	ra,80000710 <strlen>
    800005cc:	001bc783          	lbu	a5,1(s7)
    800005d0:	0125093b          	addw	s2,a0,s2
    800005d4:	001b8413          	addi	s0,s7,1
    800005d8:	f80794e3          	bnez	a5,80000560 <sprintf+0xac>
    800005dc:	06813083          	ld	ra,104(sp)
    800005e0:	06013403          	ld	s0,96(sp)
    800005e4:	05813483          	ld	s1,88(sp)
    800005e8:	04813983          	ld	s3,72(sp)
    800005ec:	04013a03          	ld	s4,64(sp)
    800005f0:	03813a83          	ld	s5,56(sp)
    800005f4:	03013b03          	ld	s6,48(sp)
    800005f8:	02813b83          	ld	s7,40(sp)
    800005fc:	02013c03          	ld	s8,32(sp)
    80000600:	01813c83          	ld	s9,24(sp)
    80000604:	00090513          	mv	a0,s2
    80000608:	05013903          	ld	s2,80(sp)
    8000060c:	0a010113          	addi	sp,sp,160
    80000610:	00008067          	ret
    80000614:	00011023          	sh	zero,0(sp)
    80000618:	00010593          	mv	a1,sp
    8000061c:	00048513          	mv	a0,s1
    80000620:	01310023          	sb	s3,0(sp)
    80000624:	0019091b          	addiw	s2,s2,1
    80000628:	188000ef          	jal	ra,800007b0 <strcat>
    8000062c:	00040b93          	mv	s7,s0
    80000630:	f25ff06f          	j	80000554 <sprintf+0xa0>
    80000634:	00813783          	ld	a5,8(sp)
    80000638:	0007ac83          	lw	s9,0(a5)
    8000063c:	00878793          	addi	a5,a5,8
    80000640:	00f13423          	sd	a5,8(sp)
    80000644:	f00c88e3          	beqz	s9,80000554 <sprintf+0xa0>
    80000648:	000c8713          	mv	a4,s9
    8000064c:	00000793          	li	a5,0
    80000650:	00a00613          	li	a2,10
    80000654:	02c7473b          	divw	a4,a4,a2
    80000658:	0017869b          	addiw	a3,a5,1
    8000065c:	00078593          	mv	a1,a5
    80000660:	0ff6f793          	zext.b	a5,a3
    80000664:	fe0718e3          	bnez	a4,80000654 <sprintf+0x1a0>
    80000668:	00078c1b          	sext.w	s8,a5
    8000066c:	0127893b          	addw	s2,a5,s2
    80000670:	ee0782e3          	beqz	a5,80000554 <sprintf+0xa0>
    80000674:	ffd7879b          	addiw	a5,a5,-3
    80000678:	ffec0c1b          	addiw	s8,s8,-2
    8000067c:	40b7843b          	subw	s0,a5,a1
    80000680:	000c069b          	sext.w	a3,s8
    80000684:	076c0863          	beq	s8,s6,800006f4 <sprintf+0x240>
    80000688:	00068713          	mv	a4,a3
    8000068c:	00100793          	li	a5,1
    80000690:	00279613          	slli	a2,a5,0x2
    80000694:	00f607b3          	add	a5,a2,a5
    80000698:	fff7071b          	addiw	a4,a4,-1
    8000069c:	00179793          	slli	a5,a5,0x1
    800006a0:	ff6718e3          	bne	a4,s6,80000690 <sprintf+0x1dc>
    800006a4:	02fcd7b3          	divu	a5,s9,a5
    800006a8:	00100713          	li	a4,1
    800006ac:	0ff7f793          	zext.b	a5,a5
    800006b0:	00271613          	slli	a2,a4,0x2
    800006b4:	00e60733          	add	a4,a2,a4
    800006b8:	fff6869b          	addiw	a3,a3,-1
    800006bc:	00171713          	slli	a4,a4,0x1
    800006c0:	ff6698e3          	bne	a3,s6,800006b0 <sprintf+0x1fc>
    800006c4:	02ecf733          	remu	a4,s9,a4
    800006c8:	00011023          	sh	zero,0(sp)
    800006cc:	0307879b          	addiw	a5,a5,48
    800006d0:	fffc0c1b          	addiw	s8,s8,-1
    800006d4:	00010593          	mv	a1,sp
    800006d8:	00048513          	mv	a0,s1
    800006dc:	00f10023          	sb	a5,0(sp)
    800006e0:	00070c9b          	sext.w	s9,a4
    800006e4:	0cc000ef          	jal	ra,800007b0 <strcat>
    800006e8:	e78406e3          	beq	s0,s8,80000554 <sprintf+0xa0>
    800006ec:	000c069b          	sext.w	a3,s8
    800006f0:	f96c1ce3          	bne	s8,s6,80000688 <sprintf+0x1d4>
    800006f4:	00011023          	sh	zero,0(sp)
    800006f8:	030c8c9b          	addiw	s9,s9,48
    800006fc:	00010593          	mv	a1,sp
    80000700:	00048513          	mv	a0,s1
    80000704:	01910023          	sb	s9,0(sp)
    80000708:	0a8000ef          	jal	ra,800007b0 <strcat>
    8000070c:	e49ff06f          	j	80000554 <sprintf+0xa0>

0000000080000710 <strlen>:
    80000710:	02050663          	beqz	a0,8000073c <strlen+0x2c>
    80000714:	00054783          	lbu	a5,0(a0)
    80000718:	00050713          	mv	a4,a0
    8000071c:	00000513          	li	a0,0
    80000720:	00078c63          	beqz	a5,80000738 <strlen+0x28>
    80000724:	00150513          	addi	a0,a0,1
    80000728:	00a707b3          	add	a5,a4,a0
    8000072c:	0007c783          	lbu	a5,0(a5)
    80000730:	fe079ae3          	bnez	a5,80000724 <strlen+0x14>
    80000734:	00008067          	ret
    80000738:	00008067          	ret
    8000073c:	ff010113          	addi	sp,sp,-16
    80000740:	00a00613          	li	a2,10
    80000744:	00000597          	auipc	a1,0x0
    80000748:	1f458593          	addi	a1,a1,500 # 80000938 <_etext+0xc0>
    8000074c:	00000517          	auipc	a0,0x0
    80000750:	22c50513          	addi	a0,a0,556 # 80000978 <_etext+0x100>
    80000754:	00113423          	sd	ra,8(sp)
    80000758:	9cdff0ef          	jal	ra,80000124 <printf>
    8000075c:	00100513          	li	a0,1
    80000760:	999ff0ef          	jal	ra,800000f8 <halt>

0000000080000764 <strcpy>:
    80000764:	02050263          	beqz	a0,80000788 <strcpy+0x24>
    80000768:	00050793          	mv	a5,a0
    8000076c:	00058e63          	beqz	a1,80000788 <strcpy+0x24>
    80000770:	0005c703          	lbu	a4,0(a1)
    80000774:	00178793          	addi	a5,a5,1
    80000778:	00158593          	addi	a1,a1,1
    8000077c:	fee78fa3          	sb	a4,-1(a5)
    80000780:	fe0718e3          	bnez	a4,80000770 <strcpy+0xc>
    80000784:	00008067          	ret
    80000788:	ff010113          	addi	sp,sp,-16
    8000078c:	01500613          	li	a2,21
    80000790:	00000597          	auipc	a1,0x0
    80000794:	1a858593          	addi	a1,a1,424 # 80000938 <_etext+0xc0>
    80000798:	00000517          	auipc	a0,0x0
    8000079c:	1e050513          	addi	a0,a0,480 # 80000978 <_etext+0x100>
    800007a0:	00113423          	sd	ra,8(sp)
    800007a4:	981ff0ef          	jal	ra,80000124 <printf>
    800007a8:	00100513          	li	a0,1
    800007ac:	94dff0ef          	jal	ra,800000f8 <halt>

00000000800007b0 <strcat>:
    800007b0:	04050063          	beqz	a0,800007f0 <strcat+0x40>
    800007b4:	02058e63          	beqz	a1,800007f0 <strcat+0x40>
    800007b8:	00054783          	lbu	a5,0(a0)
    800007bc:	02078c63          	beqz	a5,800007f4 <strcat+0x44>
    800007c0:	00050793          	mv	a5,a0
    800007c4:	0017c703          	lbu	a4,1(a5)
    800007c8:	00178793          	addi	a5,a5,1
    800007cc:	fe071ce3          	bnez	a4,800007c4 <strcat+0x14>
    800007d0:	0005c703          	lbu	a4,0(a1)
    800007d4:	00070c63          	beqz	a4,800007ec <strcat+0x3c>
    800007d8:	00e78023          	sb	a4,0(a5)
    800007dc:	0015c703          	lbu	a4,1(a1)
    800007e0:	00178793          	addi	a5,a5,1
    800007e4:	00158593          	addi	a1,a1,1
    800007e8:	fe0718e3          	bnez	a4,800007d8 <strcat+0x28>
    800007ec:	00078023          	sb	zero,0(a5)
    800007f0:	00008067          	ret
    800007f4:	00050793          	mv	a5,a0
    800007f8:	fd9ff06f          	j	800007d0 <strcat+0x20>

00000000800007fc <strcmp>:
    800007fc:	04050a63          	beqz	a0,80000850 <strcmp+0x54>
    80000800:	04058863          	beqz	a1,80000850 <strcmp+0x54>
    80000804:	00054683          	lbu	a3,0(a0)
    80000808:	00050713          	mv	a4,a0
    8000080c:	0005c503          	lbu	a0,0(a1)
    80000810:	40a6853b          	subw	a0,a3,a0
    80000814:	00050793          	mv	a5,a0
    80000818:	02051063          	bnez	a0,80000838 <strcmp+0x3c>
    8000081c:	02068863          	beqz	a3,8000084c <strcmp+0x50>
    80000820:	00174683          	lbu	a3,1(a4)
    80000824:	0015c783          	lbu	a5,1(a1)
    80000828:	00170713          	addi	a4,a4,1
    8000082c:	00158593          	addi	a1,a1,1
    80000830:	40f687bb          	subw	a5,a3,a5
    80000834:	fe0784e3          	beqz	a5,8000081c <strcmp+0x20>
    80000838:	fff00513          	li	a0,-1
    8000083c:	0007d463          	bgez	a5,80000844 <strcmp+0x48>
    80000840:	00008067          	ret
    80000844:	00f03533          	snez	a0,a5
    80000848:	00008067          	ret
    8000084c:	00008067          	ret
    80000850:	ff010113          	addi	sp,sp,-16
    80000854:	03700613          	li	a2,55
    80000858:	00000597          	auipc	a1,0x0
    8000085c:	0e058593          	addi	a1,a1,224 # 80000938 <_etext+0xc0>
    80000860:	00000517          	auipc	a0,0x0
    80000864:	11850513          	addi	a0,a0,280 # 80000978 <_etext+0x100>
    80000868:	00113423          	sd	ra,8(sp)
    8000086c:	8b9ff0ef          	jal	ra,80000124 <printf>
    80000870:	00100513          	li	a0,1
    80000874:	885ff0ef          	jal	ra,800000f8 <halt>
