
/home/xg/ysyx-workbench/am-kernels/tests/cpu-tests/build/load-store-riscv64-npc.elf：     文件格式 elf64-littleriscv


Disassembly of section .text:

0000000080000000 <_start>:
    80000000:	00000413          	li	s0,0
    80000004:	00009117          	auipc	sp,0x9
    80000008:	ffc10113          	addi	sp,sp,-4 # 80009000 <_end>
    8000000c:	3e0000ef          	jal	ra,800003ec <_trm_init>

0000000080000010 <check>:
    80000010:	00050463          	beqz	a0,80000018 <check+0x8>
    80000014:	00008067          	ret
    80000018:	ff010113          	addi	sp,sp,-16
    8000001c:	00100513          	li	a0,1
    80000020:	00113423          	sd	ra,8(sp)
    80000024:	3bc000ef          	jal	ra,800003e0 <halt>

0000000080000028 <main>:
    80000028:	f8010113          	addi	sp,sp,-128
    8000002c:	06813823          	sd	s0,112(sp)
    80000030:	00000417          	auipc	s0,0x0
    80000034:	43840413          	addi	s0,s0,1080 # 80000468 <mem>
    80000038:	00045683          	lhu	a3,0(s0)
    8000003c:	05313c23          	sd	s3,88(sp)
    80000040:	00000997          	auipc	s3,0x0
    80000044:	3d898993          	addi	s3,s3,984 # 80000418 <lh_ans>
    80000048:	0009a503          	lw	a0,0(s3)
    8000004c:	0106979b          	slliw	a5,a3,0x10
    80000050:	4107d79b          	sraiw	a5,a5,0x10
    80000054:	40f50533          	sub	a0,a0,a5
    80000058:	00153513          	seqz	a0,a0
    8000005c:	06113c23          	sd	ra,120(sp)
    80000060:	06913423          	sd	s1,104(sp)
    80000064:	07213023          	sd	s2,96(sp)
    80000068:	05413823          	sd	s4,80(sp)
    8000006c:	05513423          	sd	s5,72(sp)
    80000070:	05613023          	sd	s6,64(sp)
    80000074:	03713c23          	sd	s7,56(sp)
    80000078:	03813823          	sd	s8,48(sp)
    8000007c:	03913423          	sd	s9,40(sp)
    80000080:	03a13023          	sd	s10,32(sp)
    80000084:	01b13c23          	sd	s11,24(sp)
    80000088:	00d13423          	sd	a3,8(sp)
    8000008c:	f85ff0ef          	jal	ra,80000010 <check>
    80000090:	00245703          	lhu	a4,2(s0)
    80000094:	0049a503          	lw	a0,4(s3)
    80000098:	00000917          	auipc	s2,0x0
    8000009c:	3a090913          	addi	s2,s2,928 # 80000438 <lhu_ans>
    800000a0:	0107179b          	slliw	a5,a4,0x10
    800000a4:	4107d79b          	sraiw	a5,a5,0x10
    800000a8:	40f50533          	sub	a0,a0,a5
    800000ac:	00153513          	seqz	a0,a0
    800000b0:	00e13023          	sd	a4,0(sp)
    800000b4:	f5dff0ef          	jal	ra,80000010 <check>
    800000b8:	00445d83          	lhu	s11,4(s0)
    800000bc:	0089a503          	lw	a0,8(s3)
    800000c0:	00000a97          	auipc	s5,0x0
    800000c4:	398a8a93          	addi	s5,s5,920 # 80000458 <lwlr_ans>
    800000c8:	010d979b          	slliw	a5,s11,0x10
    800000cc:	4107d79b          	sraiw	a5,a5,0x10
    800000d0:	40f50533          	sub	a0,a0,a5
    800000d4:	00153513          	seqz	a0,a0
    800000d8:	f39ff0ef          	jal	ra,80000010 <check>
    800000dc:	00645d03          	lhu	s10,6(s0)
    800000e0:	00c9a503          	lw	a0,12(s3)
    800000e4:	00000497          	auipc	s1,0x0
    800000e8:	39448493          	addi	s1,s1,916 # 80000478 <sh_ans>
    800000ec:	010d179b          	slliw	a5,s10,0x10
    800000f0:	4107d79b          	sraiw	a5,a5,0x10
    800000f4:	40f50533          	sub	a0,a0,a5
    800000f8:	00153513          	seqz	a0,a0
    800000fc:	f15ff0ef          	jal	ra,80000010 <check>
    80000100:	00845c83          	lhu	s9,8(s0)
    80000104:	0109a503          	lw	a0,16(s3)
    80000108:	00010a37          	lui	s4,0x10
    8000010c:	010c979b          	slliw	a5,s9,0x10
    80000110:	4107d79b          	sraiw	a5,a5,0x10
    80000114:	40f50533          	sub	a0,a0,a5
    80000118:	00153513          	seqz	a0,a0
    8000011c:	ef5ff0ef          	jal	ra,80000010 <check>
    80000120:	00a45c03          	lhu	s8,10(s0)
    80000124:	0149a503          	lw	a0,20(s3)
    80000128:	010c179b          	slliw	a5,s8,0x10
    8000012c:	4107d79b          	sraiw	a5,a5,0x10
    80000130:	40f50533          	sub	a0,a0,a5
    80000134:	00153513          	seqz	a0,a0
    80000138:	ed9ff0ef          	jal	ra,80000010 <check>
    8000013c:	00c45b83          	lhu	s7,12(s0)
    80000140:	0189a503          	lw	a0,24(s3)
    80000144:	010b979b          	slliw	a5,s7,0x10
    80000148:	4107d79b          	sraiw	a5,a5,0x10
    8000014c:	40f50533          	sub	a0,a0,a5
    80000150:	00153513          	seqz	a0,a0
    80000154:	ebdff0ef          	jal	ra,80000010 <check>
    80000158:	00e45b03          	lhu	s6,14(s0)
    8000015c:	01c9a503          	lw	a0,28(s3)
    80000160:	010b179b          	slliw	a5,s6,0x10
    80000164:	4107d79b          	sraiw	a5,a5,0x10
    80000168:	40f50533          	sub	a0,a0,a5
    8000016c:	00153513          	seqz	a0,a0
    80000170:	ea1ff0ef          	jal	ra,80000010 <check>
    80000174:	00813683          	ld	a3,8(sp)
    80000178:	00092503          	lw	a0,0(s2)
    8000017c:	40d50533          	sub	a0,a0,a3
    80000180:	00153513          	seqz	a0,a0
    80000184:	e8dff0ef          	jal	ra,80000010 <check>
    80000188:	00013703          	ld	a4,0(sp)
    8000018c:	00492503          	lw	a0,4(s2)
    80000190:	40e50533          	sub	a0,a0,a4
    80000194:	00153513          	seqz	a0,a0
    80000198:	e79ff0ef          	jal	ra,80000010 <check>
    8000019c:	00892503          	lw	a0,8(s2)
    800001a0:	41b50533          	sub	a0,a0,s11
    800001a4:	00153513          	seqz	a0,a0
    800001a8:	e69ff0ef          	jal	ra,80000010 <check>
    800001ac:	00c92503          	lw	a0,12(s2)
    800001b0:	41a50533          	sub	a0,a0,s10
    800001b4:	00153513          	seqz	a0,a0
    800001b8:	e59ff0ef          	jal	ra,80000010 <check>
    800001bc:	01092503          	lw	a0,16(s2)
    800001c0:	41950533          	sub	a0,a0,s9
    800001c4:	00153513          	seqz	a0,a0
    800001c8:	e49ff0ef          	jal	ra,80000010 <check>
    800001cc:	01492503          	lw	a0,20(s2)
    800001d0:	41850533          	sub	a0,a0,s8
    800001d4:	00153513          	seqz	a0,a0
    800001d8:	e39ff0ef          	jal	ra,80000010 <check>
    800001dc:	01892503          	lw	a0,24(s2)
    800001e0:	41750533          	sub	a0,a0,s7
    800001e4:	00153513          	seqz	a0,a0
    800001e8:	e29ff0ef          	jal	ra,80000010 <check>
    800001ec:	01c92503          	lw	a0,28(s2)
    800001f0:	41650533          	sub	a0,a0,s6
    800001f4:	00153513          	seqz	a0,a0
    800001f8:	e19ff0ef          	jal	ra,80000010 <check>
    800001fc:	00244683          	lbu	a3,2(s0)
    80000200:	00144603          	lbu	a2,1(s0)
    80000204:	00344703          	lbu	a4,3(s0)
    80000208:	00444783          	lbu	a5,4(s0)
    8000020c:	00869693          	slli	a3,a3,0x8
    80000210:	00c6e6b3          	or	a3,a3,a2
    80000214:	01071713          	slli	a4,a4,0x10
    80000218:	00d76733          	or	a4,a4,a3
    8000021c:	000aa503          	lw	a0,0(s5)
    80000220:	01879793          	slli	a5,a5,0x18
    80000224:	00e7e7b3          	or	a5,a5,a4
    80000228:	0007879b          	sext.w	a5,a5
    8000022c:	40f50533          	sub	a0,a0,a5
    80000230:	00153513          	seqz	a0,a0
    80000234:	dddff0ef          	jal	ra,80000010 <check>
    80000238:	00644683          	lbu	a3,6(s0)
    8000023c:	00544603          	lbu	a2,5(s0)
    80000240:	00744703          	lbu	a4,7(s0)
    80000244:	00844783          	lbu	a5,8(s0)
    80000248:	00869693          	slli	a3,a3,0x8
    8000024c:	00c6e6b3          	or	a3,a3,a2
    80000250:	01071713          	slli	a4,a4,0x10
    80000254:	00d76733          	or	a4,a4,a3
    80000258:	004aa503          	lw	a0,4(s5)
    8000025c:	01879793          	slli	a5,a5,0x18
    80000260:	00e7e7b3          	or	a5,a5,a4
    80000264:	0007879b          	sext.w	a5,a5
    80000268:	40f50533          	sub	a0,a0,a5
    8000026c:	00153513          	seqz	a0,a0
    80000270:	da1ff0ef          	jal	ra,80000010 <check>
    80000274:	00a44683          	lbu	a3,10(s0)
    80000278:	00944603          	lbu	a2,9(s0)
    8000027c:	00b44703          	lbu	a4,11(s0)
    80000280:	00c44783          	lbu	a5,12(s0)
    80000284:	00869693          	slli	a3,a3,0x8
    80000288:	00c6e6b3          	or	a3,a3,a2
    8000028c:	01071713          	slli	a4,a4,0x10
    80000290:	00d76733          	or	a4,a4,a3
    80000294:	008aa503          	lw	a0,8(s5)
    80000298:	01879793          	slli	a5,a5,0x18
    8000029c:	00e7e7b3          	or	a5,a5,a4
    800002a0:	0007879b          	sext.w	a5,a5
    800002a4:	40f50533          	sub	a0,a0,a5
    800002a8:	00153513          	seqz	a0,a0
    800002ac:	d65ff0ef          	jal	ra,80000010 <check>
    800002b0:	0004a503          	lw	a0,0(s1)
    800002b4:	ffda0793          	addi	a5,s4,-3 # fffd <_entry_offset+0xfffd>
    800002b8:	40f50533          	sub	a0,a0,a5
    800002bc:	00153513          	seqz	a0,a0
    800002c0:	ffd00793          	li	a5,-3
    800002c4:	00f41023          	sh	a5,0(s0)
    800002c8:	d49ff0ef          	jal	ra,80000010 <check>
    800002cc:	0044a503          	lw	a0,4(s1)
    800002d0:	ff7a0793          	addi	a5,s4,-9
    800002d4:	40f50533          	sub	a0,a0,a5
    800002d8:	00153513          	seqz	a0,a0
    800002dc:	ff700793          	li	a5,-9
    800002e0:	00f41123          	sh	a5,2(s0)
    800002e4:	d2dff0ef          	jal	ra,80000010 <check>
    800002e8:	0084a503          	lw	a0,8(s1)
    800002ec:	fdfa0793          	addi	a5,s4,-33
    800002f0:	40f50533          	sub	a0,a0,a5
    800002f4:	00153513          	seqz	a0,a0
    800002f8:	fdf00793          	li	a5,-33
    800002fc:	00f41223          	sh	a5,4(s0)
    80000300:	d11ff0ef          	jal	ra,80000010 <check>
    80000304:	00c4a503          	lw	a0,12(s1)
    80000308:	f7fa0793          	addi	a5,s4,-129
    8000030c:	dffa0a13          	addi	s4,s4,-513
    80000310:	40f50533          	sub	a0,a0,a5
    80000314:	00153513          	seqz	a0,a0
    80000318:	f7f00793          	li	a5,-129
    8000031c:	00f41323          	sh	a5,6(s0)
    80000320:	cf1ff0ef          	jal	ra,80000010 <check>
    80000324:	0104a503          	lw	a0,16(s1)
    80000328:	dff00793          	li	a5,-513
    8000032c:	00f41423          	sh	a5,8(s0)
    80000330:	41450533          	sub	a0,a0,s4
    80000334:	00153513          	seqz	a0,a0
    80000338:	cd9ff0ef          	jal	ra,80000010 <check>
    8000033c:	0144a503          	lw	a0,20(s1)
    80000340:	0000f7b7          	lui	a5,0xf
    80000344:	7ff78793          	addi	a5,a5,2047 # f7ff <_entry_offset+0xf7ff>
    80000348:	40f50533          	sub	a0,a0,a5
    8000034c:	fffff7b7          	lui	a5,0xfffff
    80000350:	7ff78793          	addi	a5,a5,2047 # fffffffffffff7ff <_end+0xffffffff7fff67ff>
    80000354:	00153513          	seqz	a0,a0
    80000358:	00f41523          	sh	a5,10(s0)
    8000035c:	cb5ff0ef          	jal	ra,80000010 <check>
    80000360:	0184a503          	lw	a0,24(s1)
    80000364:	0000e7b7          	lui	a5,0xe
    80000368:	fff78793          	addi	a5,a5,-1 # dfff <_entry_offset+0xdfff>
    8000036c:	40f50533          	sub	a0,a0,a5
    80000370:	ffffe7b7          	lui	a5,0xffffe
    80000374:	fff78793          	addi	a5,a5,-1 # ffffffffffffdfff <_end+0xffffffff7fff4fff>
    80000378:	00153513          	seqz	a0,a0
    8000037c:	00f41623          	sh	a5,12(s0)
    80000380:	c91ff0ef          	jal	ra,80000010 <check>
    80000384:	01c4a503          	lw	a0,28(s1)
    80000388:	ffff87b7          	lui	a5,0xffff8
    8000038c:	fff7c793          	not	a5,a5
    80000390:	40f50533          	sub	a0,a0,a5
    80000394:	00153513          	seqz	a0,a0
    80000398:	00f41723          	sh	a5,14(s0)
    8000039c:	c75ff0ef          	jal	ra,80000010 <check>
    800003a0:	07813083          	ld	ra,120(sp)
    800003a4:	07013403          	ld	s0,112(sp)
    800003a8:	06813483          	ld	s1,104(sp)
    800003ac:	06013903          	ld	s2,96(sp)
    800003b0:	05813983          	ld	s3,88(sp)
    800003b4:	05013a03          	ld	s4,80(sp)
    800003b8:	04813a83          	ld	s5,72(sp)
    800003bc:	04013b03          	ld	s6,64(sp)
    800003c0:	03813b83          	ld	s7,56(sp)
    800003c4:	03013c03          	ld	s8,48(sp)
    800003c8:	02813c83          	ld	s9,40(sp)
    800003cc:	02013d03          	ld	s10,32(sp)
    800003d0:	01813d83          	ld	s11,24(sp)
    800003d4:	00000513          	li	a0,0
    800003d8:	08010113          	addi	sp,sp,128
    800003dc:	00008067          	ret

00000000800003e0 <halt>:
    800003e0:	00050513          	mv	a0,a0
    800003e4:	00100073          	ebreak
    800003e8:	0000006f          	j	800003e8 <halt+0x8>

00000000800003ec <_trm_init>:
    800003ec:	ff010113          	addi	sp,sp,-16
    800003f0:	00000517          	auipc	a0,0x0
    800003f4:	02050513          	addi	a0,a0,32 # 80000410 <mainargs>
    800003f8:	00113423          	sd	ra,8(sp)
    800003fc:	c2dff0ef          	jal	ra,80000028 <main>
    80000400:	00050513          	mv	a0,a0
    80000404:	00100073          	ebreak
    80000408:	0000006f          	j	80000408 <_trm_init+0x1c>
