
/home/xg/ysyx-workbench/am-kernels/tests/cpu-tests/build/max-riscv64-npc.elf：     文件格式 elf64-littleriscv


Disassembly of section .text:

0000000080000000 <_start>:
    80000000:	00000413          	li	s0,0
    80000004:	00009117          	auipc	sp,0x9
    80000008:	ffc10113          	addi	sp,sp,-4 # 80009000 <_end>
    8000000c:	208000ef          	jal	ra,80000214 <_trm_init>

0000000080000010 <check>:
    80000010:	00050463          	beqz	a0,80000018 <check+0x8>
    80000014:	00008067          	ret
    80000018:	ff010113          	addi	sp,sp,-16
    8000001c:	00100513          	li	a0,1
    80000020:	00113423          	sd	ra,8(sp)
    80000024:	1e4000ef          	jal	ra,80000208 <halt>

0000000080000028 <main>:
    80000028:	f7010113          	addi	sp,sp,-144
    8000002c:	06913c23          	sd	s1,120(sp)
    80000030:	00000497          	auipc	s1,0x0
    80000034:	31048493          	addi	s1,s1,784 # 80000340 <test_data>
    80000038:	07213823          	sd	s2,112(sp)
    8000003c:	07313423          	sd	s3,104(sp)
    80000040:	01c4a903          	lw	s2,28(s1)
    80000044:	0184a983          	lw	s3,24(s1)
    80000048:	07413023          	sd	s4,96(sp)
    8000004c:	05513c23          	sd	s5,88(sp)
    80000050:	0144aa03          	lw	s4,20(s1)
    80000054:	0104aa83          	lw	s5,16(s1)
    80000058:	05613823          	sd	s6,80(sp)
    8000005c:	05713423          	sd	s7,72(sp)
    80000060:	00c4ab03          	lw	s6,12(s1)
    80000064:	0084ab83          	lw	s7,8(s1)
    80000068:	05813023          	sd	s8,64(sp)
    8000006c:	03913c23          	sd	s9,56(sp)
    80000070:	0044ac03          	lw	s8,4(s1)
    80000074:	0004ac83          	lw	s9,0(s1)
    80000078:	08813023          	sd	s0,128(sp)
    8000007c:	03a13823          	sd	s10,48(sp)
    80000080:	08113423          	sd	ra,136(sp)
    80000084:	03b13423          	sd	s11,40(sp)
    80000088:	00000417          	auipc	s0,0x0
    8000008c:	1b840413          	addi	s0,s0,440 # 80000240 <ans>
    80000090:	00000d17          	auipc	s10,0x0
    80000094:	2b0d0d13          	addi	s10,s10,688 # 80000340 <test_data>
    80000098:	01912023          	sw	s9,0(sp)
    8000009c:	01812223          	sw	s8,4(sp)
    800000a0:	01712423          	sw	s7,8(sp)
    800000a4:	01612623          	sw	s6,12(sp)
    800000a8:	01512823          	sw	s5,16(sp)
    800000ac:	01412a23          	sw	s4,20(sp)
    800000b0:	01312c23          	sw	s3,24(sp)
    800000b4:	01212e23          	sw	s2,28(sp)
    800000b8:	0004ad83          	lw	s11,0(s1)
    800000bc:	000d8513          	mv	a0,s11
    800000c0:	019dd463          	bge	s11,s9,800000c8 <main+0xa0>
    800000c4:	00012503          	lw	a0,0(sp)
    800000c8:	00042703          	lw	a4,0(s0)
    800000cc:	0005051b          	sext.w	a0,a0
    800000d0:	40e50533          	sub	a0,a0,a4
    800000d4:	00153513          	seqz	a0,a0
    800000d8:	f39ff0ef          	jal	ra,80000010 <check>
    800000dc:	000d8513          	mv	a0,s11
    800000e0:	018dd463          	bge	s11,s8,800000e8 <main+0xc0>
    800000e4:	00412503          	lw	a0,4(sp)
    800000e8:	00442703          	lw	a4,4(s0)
    800000ec:	0005051b          	sext.w	a0,a0
    800000f0:	40e50533          	sub	a0,a0,a4
    800000f4:	00153513          	seqz	a0,a0
    800000f8:	f19ff0ef          	jal	ra,80000010 <check>
    800000fc:	000d8513          	mv	a0,s11
    80000100:	017dd463          	bge	s11,s7,80000108 <main+0xe0>
    80000104:	00812503          	lw	a0,8(sp)
    80000108:	00842703          	lw	a4,8(s0)
    8000010c:	0005051b          	sext.w	a0,a0
    80000110:	40e50533          	sub	a0,a0,a4
    80000114:	00153513          	seqz	a0,a0
    80000118:	ef9ff0ef          	jal	ra,80000010 <check>
    8000011c:	000d8513          	mv	a0,s11
    80000120:	016dd463          	bge	s11,s6,80000128 <main+0x100>
    80000124:	00c12503          	lw	a0,12(sp)
    80000128:	00c42703          	lw	a4,12(s0)
    8000012c:	0005051b          	sext.w	a0,a0
    80000130:	40e50533          	sub	a0,a0,a4
    80000134:	00153513          	seqz	a0,a0
    80000138:	ed9ff0ef          	jal	ra,80000010 <check>
    8000013c:	000d8513          	mv	a0,s11
    80000140:	015dd463          	bge	s11,s5,80000148 <main+0x120>
    80000144:	01012503          	lw	a0,16(sp)
    80000148:	01042703          	lw	a4,16(s0)
    8000014c:	0005051b          	sext.w	a0,a0
    80000150:	40e50533          	sub	a0,a0,a4
    80000154:	00153513          	seqz	a0,a0
    80000158:	eb9ff0ef          	jal	ra,80000010 <check>
    8000015c:	000d8513          	mv	a0,s11
    80000160:	014dd463          	bge	s11,s4,80000168 <main+0x140>
    80000164:	01412503          	lw	a0,20(sp)
    80000168:	01442703          	lw	a4,20(s0)
    8000016c:	0005051b          	sext.w	a0,a0
    80000170:	40e50533          	sub	a0,a0,a4
    80000174:	00153513          	seqz	a0,a0
    80000178:	e99ff0ef          	jal	ra,80000010 <check>
    8000017c:	000d8513          	mv	a0,s11
    80000180:	013dd463          	bge	s11,s3,80000188 <main+0x160>
    80000184:	01812503          	lw	a0,24(sp)
    80000188:	01842703          	lw	a4,24(s0)
    8000018c:	0005051b          	sext.w	a0,a0
    80000190:	40e50533          	sub	a0,a0,a4
    80000194:	00153513          	seqz	a0,a0
    80000198:	e79ff0ef          	jal	ra,80000010 <check>
    8000019c:	000d8513          	mv	a0,s11
    800001a0:	012dd463          	bge	s11,s2,800001a8 <main+0x180>
    800001a4:	01c12503          	lw	a0,28(sp)
    800001a8:	01c42783          	lw	a5,28(s0)
    800001ac:	0005051b          	sext.w	a0,a0
    800001b0:	02040413          	addi	s0,s0,32
    800001b4:	40f50533          	sub	a0,a0,a5
    800001b8:	00153513          	seqz	a0,a0
    800001bc:	e55ff0ef          	jal	ra,80000010 <check>
    800001c0:	00448493          	addi	s1,s1,4
    800001c4:	ee8d1ae3          	bne	s10,s0,800000b8 <main+0x90>
    800001c8:	08813083          	ld	ra,136(sp)
    800001cc:	08013403          	ld	s0,128(sp)
    800001d0:	07813483          	ld	s1,120(sp)
    800001d4:	07013903          	ld	s2,112(sp)
    800001d8:	06813983          	ld	s3,104(sp)
    800001dc:	06013a03          	ld	s4,96(sp)
    800001e0:	05813a83          	ld	s5,88(sp)
    800001e4:	05013b03          	ld	s6,80(sp)
    800001e8:	04813b83          	ld	s7,72(sp)
    800001ec:	04013c03          	ld	s8,64(sp)
    800001f0:	03813c83          	ld	s9,56(sp)
    800001f4:	03013d03          	ld	s10,48(sp)
    800001f8:	02813d83          	ld	s11,40(sp)
    800001fc:	00000513          	li	a0,0
    80000200:	09010113          	addi	sp,sp,144
    80000204:	00008067          	ret

0000000080000208 <halt>:
    80000208:	00050513          	mv	a0,a0
    8000020c:	00100073          	ebreak
    80000210:	0000006f          	j	80000210 <halt+0x8>

0000000080000214 <_trm_init>:
    80000214:	ff010113          	addi	sp,sp,-16
    80000218:	00000517          	auipc	a0,0x0
    8000021c:	02050513          	addi	a0,a0,32 # 80000238 <mainargs>
    80000220:	00113423          	sd	ra,8(sp)
    80000224:	e05ff0ef          	jal	ra,80000028 <main>
    80000228:	00050513          	mv	a0,a0
    8000022c:	00100073          	ebreak
    80000230:	0000006f          	j	80000230 <_trm_init+0x1c>
