
/home/xg/ysyx-workbench/am-kernels/tests/cpu-tests/build/shift-riscv64-npc.elf：     文件格式 elf64-littleriscv


Disassembly of section .text:

0000000080000000 <_start>:
    80000000:	00000413          	li	s0,0
    80000004:	00009117          	auipc	sp,0x9
    80000008:	ffc10113          	addi	sp,sp,-4 # 80009000 <_end>
    8000000c:	2bc000ef          	jal	ra,800002c8 <_trm_init>

0000000080000010 <check>:
    80000010:	00050463          	beqz	a0,80000018 <check+0x8>
    80000014:	00008067          	ret
    80000018:	ff010113          	addi	sp,sp,-16
    8000001c:	00100513          	li	a0,1
    80000020:	00113423          	sd	ra,8(sp)
    80000024:	298000ef          	jal	ra,800002bc <halt>

0000000080000028 <main>:
    80000028:	f9010113          	addi	sp,sp,-112
    8000002c:	05313423          	sd	s3,72(sp)
    80000030:	00000997          	auipc	s3,0x0
    80000034:	32098993          	addi	s3,s3,800 # 80000350 <test>
    80000038:	05213823          	sd	s2,80(sp)
    8000003c:	01a13823          	sd	s10,16(sp)
    80000040:	00000917          	auipc	s2,0x0
    80000044:	2d090913          	addi	s2,s2,720 # 80000310 <srl_ans>
    80000048:	0009ad03          	lw	s10,0(s3)
    8000004c:	00092783          	lw	a5,0(s2)
    80000050:	06113423          	sd	ra,104(sp)
    80000054:	007d551b          	srliw	a0,s10,0x7
    80000058:	40f50533          	sub	a0,a0,a5
    8000005c:	00153513          	seqz	a0,a0
    80000060:	06813023          	sd	s0,96(sp)
    80000064:	04913c23          	sd	s1,88(sp)
    80000068:	05413023          	sd	s4,64(sp)
    8000006c:	03513c23          	sd	s5,56(sp)
    80000070:	03613823          	sd	s6,48(sp)
    80000074:	03713423          	sd	s7,40(sp)
    80000078:	03813023          	sd	s8,32(sp)
    8000007c:	01913c23          	sd	s9,24(sp)
    80000080:	01b13423          	sd	s11,8(sp)
    80000084:	f8dff0ef          	jal	ra,80000010 <check>
    80000088:	0049ac83          	lw	s9,4(s3)
    8000008c:	00492783          	lw	a5,4(s2)
    80000090:	00000497          	auipc	s1,0x0
    80000094:	26048493          	addi	s1,s1,608 # 800002f0 <srav_ans>
    80000098:	007cd51b          	srliw	a0,s9,0x7
    8000009c:	40f50533          	sub	a0,a0,a5
    800000a0:	00153513          	seqz	a0,a0
    800000a4:	f6dff0ef          	jal	ra,80000010 <check>
    800000a8:	0089ab83          	lw	s7,8(s3)
    800000ac:	00892783          	lw	a5,8(s2)
    800000b0:	00000417          	auipc	s0,0x0
    800000b4:	28040413          	addi	s0,s0,640 # 80000330 <srlv_ans>
    800000b8:	007bd51b          	srliw	a0,s7,0x7
    800000bc:	40f50533          	sub	a0,a0,a5
    800000c0:	00153513          	seqz	a0,a0
    800000c4:	f4dff0ef          	jal	ra,80000010 <check>
    800000c8:	00c9ac03          	lw	s8,12(s3)
    800000cc:	00c92503          	lw	a0,12(s2)
    800000d0:	007c5d9b          	srliw	s11,s8,0x7
    800000d4:	41b50533          	sub	a0,a0,s11
    800000d8:	00153513          	seqz	a0,a0
    800000dc:	f35ff0ef          	jal	ra,80000010 <check>
    800000e0:	0109ab03          	lw	s6,16(s3)
    800000e4:	01092783          	lw	a5,16(s2)
    800000e8:	007b551b          	srliw	a0,s6,0x7
    800000ec:	40f50533          	sub	a0,a0,a5
    800000f0:	00153513          	seqz	a0,a0
    800000f4:	f1dff0ef          	jal	ra,80000010 <check>
    800000f8:	0149aa83          	lw	s5,20(s3)
    800000fc:	01492783          	lw	a5,20(s2)
    80000100:	007ad51b          	srliw	a0,s5,0x7
    80000104:	40f50533          	sub	a0,a0,a5
    80000108:	00153513          	seqz	a0,a0
    8000010c:	f05ff0ef          	jal	ra,80000010 <check>
    80000110:	0189aa03          	lw	s4,24(s3)
    80000114:	01892783          	lw	a5,24(s2)
    80000118:	007a551b          	srliw	a0,s4,0x7
    8000011c:	40f50533          	sub	a0,a0,a5
    80000120:	00153513          	seqz	a0,a0
    80000124:	eedff0ef          	jal	ra,80000010 <check>
    80000128:	01c9a983          	lw	s3,28(s3)
    8000012c:	01c92783          	lw	a5,28(s2)
    80000130:	0079d51b          	srliw	a0,s3,0x7
    80000134:	40f50533          	sub	a0,a0,a5
    80000138:	00153513          	seqz	a0,a0
    8000013c:	ed5ff0ef          	jal	ra,80000010 <check>
    80000140:	0004a783          	lw	a5,0(s1)
    80000144:	404d5513          	srai	a0,s10,0x4
    80000148:	004d5d1b          	srliw	s10,s10,0x4
    8000014c:	40f50533          	sub	a0,a0,a5
    80000150:	00153513          	seqz	a0,a0
    80000154:	ebdff0ef          	jal	ra,80000010 <check>
    80000158:	0044a783          	lw	a5,4(s1)
    8000015c:	405cd513          	srai	a0,s9,0x5
    80000160:	005cdc9b          	srliw	s9,s9,0x5
    80000164:	40f50533          	sub	a0,a0,a5
    80000168:	00153513          	seqz	a0,a0
    8000016c:	ea5ff0ef          	jal	ra,80000010 <check>
    80000170:	0084a783          	lw	a5,8(s1)
    80000174:	406bd513          	srai	a0,s7,0x6
    80000178:	40f50533          	sub	a0,a0,a5
    8000017c:	00153513          	seqz	a0,a0
    80000180:	e91ff0ef          	jal	ra,80000010 <check>
    80000184:	00c4a783          	lw	a5,12(s1)
    80000188:	407c5513          	srai	a0,s8,0x7
    8000018c:	40f50533          	sub	a0,a0,a5
    80000190:	00153513          	seqz	a0,a0
    80000194:	e7dff0ef          	jal	ra,80000010 <check>
    80000198:	0104a783          	lw	a5,16(s1)
    8000019c:	408b5513          	srai	a0,s6,0x8
    800001a0:	40f50533          	sub	a0,a0,a5
    800001a4:	00153513          	seqz	a0,a0
    800001a8:	e69ff0ef          	jal	ra,80000010 <check>
    800001ac:	0144a783          	lw	a5,20(s1)
    800001b0:	409ad513          	srai	a0,s5,0x9
    800001b4:	40f50533          	sub	a0,a0,a5
    800001b8:	00153513          	seqz	a0,a0
    800001bc:	e55ff0ef          	jal	ra,80000010 <check>
    800001c0:	0184a783          	lw	a5,24(s1)
    800001c4:	40aa5513          	srai	a0,s4,0xa
    800001c8:	40f50533          	sub	a0,a0,a5
    800001cc:	00153513          	seqz	a0,a0
    800001d0:	e41ff0ef          	jal	ra,80000010 <check>
    800001d4:	01c4a783          	lw	a5,28(s1)
    800001d8:	40b9d513          	srai	a0,s3,0xb
    800001dc:	40f50533          	sub	a0,a0,a5
    800001e0:	00153513          	seqz	a0,a0
    800001e4:	e2dff0ef          	jal	ra,80000010 <check>
    800001e8:	00042503          	lw	a0,0(s0)
    800001ec:	41a50533          	sub	a0,a0,s10
    800001f0:	00153513          	seqz	a0,a0
    800001f4:	e1dff0ef          	jal	ra,80000010 <check>
    800001f8:	00442503          	lw	a0,4(s0)
    800001fc:	41950533          	sub	a0,a0,s9
    80000200:	00153513          	seqz	a0,a0
    80000204:	e0dff0ef          	jal	ra,80000010 <check>
    80000208:	00842783          	lw	a5,8(s0)
    8000020c:	006bd51b          	srliw	a0,s7,0x6
    80000210:	40f50533          	sub	a0,a0,a5
    80000214:	00153513          	seqz	a0,a0
    80000218:	df9ff0ef          	jal	ra,80000010 <check>
    8000021c:	00c42503          	lw	a0,12(s0)
    80000220:	41b50533          	sub	a0,a0,s11
    80000224:	00153513          	seqz	a0,a0
    80000228:	de9ff0ef          	jal	ra,80000010 <check>
    8000022c:	01042783          	lw	a5,16(s0)
    80000230:	008b551b          	srliw	a0,s6,0x8
    80000234:	40f50533          	sub	a0,a0,a5
    80000238:	00153513          	seqz	a0,a0
    8000023c:	dd5ff0ef          	jal	ra,80000010 <check>
    80000240:	01442783          	lw	a5,20(s0)
    80000244:	009ad51b          	srliw	a0,s5,0x9
    80000248:	40f50533          	sub	a0,a0,a5
    8000024c:	00153513          	seqz	a0,a0
    80000250:	dc1ff0ef          	jal	ra,80000010 <check>
    80000254:	01842783          	lw	a5,24(s0)
    80000258:	00aa551b          	srliw	a0,s4,0xa
    8000025c:	40f50533          	sub	a0,a0,a5
    80000260:	00153513          	seqz	a0,a0
    80000264:	dadff0ef          	jal	ra,80000010 <check>
    80000268:	01c42783          	lw	a5,28(s0)
    8000026c:	00b9d51b          	srliw	a0,s3,0xb
    80000270:	40f50533          	sub	a0,a0,a5
    80000274:	00153513          	seqz	a0,a0
    80000278:	d99ff0ef          	jal	ra,80000010 <check>
    8000027c:	06813083          	ld	ra,104(sp)
    80000280:	06013403          	ld	s0,96(sp)
    80000284:	05813483          	ld	s1,88(sp)
    80000288:	05013903          	ld	s2,80(sp)
    8000028c:	04813983          	ld	s3,72(sp)
    80000290:	04013a03          	ld	s4,64(sp)
    80000294:	03813a83          	ld	s5,56(sp)
    80000298:	03013b03          	ld	s6,48(sp)
    8000029c:	00000513          	li	a0,0
    800002a0:	02813b83          	ld	s7,40(sp)
    800002a4:	02013c03          	ld	s8,32(sp)
    800002a8:	01813c83          	ld	s9,24(sp)
    800002ac:	01013d03          	ld	s10,16(sp)
    800002b0:	00813d83          	ld	s11,8(sp)
    800002b4:	07010113          	addi	sp,sp,112
    800002b8:	00008067          	ret

00000000800002bc <halt>:
    800002bc:	00050513          	mv	a0,a0
    800002c0:	00100073          	ebreak
    800002c4:	0000006f          	j	800002c4 <halt+0x8>

00000000800002c8 <_trm_init>:
    800002c8:	ff010113          	addi	sp,sp,-16
    800002cc:	00000517          	auipc	a0,0x0
    800002d0:	01c50513          	addi	a0,a0,28 # 800002e8 <_etext>
    800002d4:	00113423          	sd	ra,8(sp)
    800002d8:	d51ff0ef          	jal	ra,80000028 <main>
    800002dc:	00050513          	mv	a0,a0
    800002e0:	00100073          	ebreak
    800002e4:	0000006f          	j	800002e4 <_trm_init+0x1c>
