
/home/xg/ysyx-workbench/am-kernels/tests/cpu-tests/build/shuixianhua-riscv64-npc.elf：     文件格式 elf64-littleriscv


Disassembly of section .text:

0000000080000000 <_start>:
    80000000:	00000413          	li	s0,0
    80000004:	00009117          	auipc	sp,0x9
    80000008:	ffc10113          	addi	sp,sp,-4 # 80009000 <_end>
    8000000c:	0fc000ef          	jal	ra,80000108 <_trm_init>

0000000080000010 <check>:
    80000010:	00050463          	beqz	a0,80000018 <check+0x8>
    80000014:	00008067          	ret
    80000018:	ff010113          	addi	sp,sp,-16
    8000001c:	00100513          	li	a0,1
    80000020:	00113423          	sd	ra,8(sp)
    80000024:	0d8000ef          	jal	ra,800000fc <halt>

0000000080000028 <main>:
    80000028:	fc010113          	addi	sp,sp,-64
    8000002c:	02813823          	sd	s0,48(sp)
    80000030:	02913423          	sd	s1,40(sp)
    80000034:	03213023          	sd	s2,32(sp)
    80000038:	01313c23          	sd	s3,24(sp)
    8000003c:	01413823          	sd	s4,16(sp)
    80000040:	01513423          	sd	s5,8(sp)
    80000044:	02113c23          	sd	ra,56(sp)
    80000048:	06500413          	li	s0,101
    8000004c:	00000a93          	li	s5,0
    80000050:	06400993          	li	s3,100
    80000054:	00a00913          	li	s2,10
    80000058:	1f400a13          	li	s4,500
    8000005c:	00000497          	auipc	s1,0x0
    80000060:	0d448493          	addi	s1,s1,212 # 80000130 <ans>
    80000064:	0324463b          	divw	a2,s0,s2
    80000068:	033446bb          	divw	a3,s0,s3
    8000006c:	0326663b          	remw	a2,a2,s2
    80000070:	0324673b          	remw	a4,s0,s2
    80000074:	02c607bb          	mulw	a5,a2,a2
    80000078:	02d6853b          	mulw	a0,a3,a3
    8000007c:	02e705bb          	mulw	a1,a4,a4
    80000080:	02c787bb          	mulw	a5,a5,a2
    80000084:	02d506bb          	mulw	a3,a0,a3
    80000088:	02e5873b          	mulw	a4,a1,a4
    8000008c:	00d787bb          	addw	a5,a5,a3
    80000090:	00e787bb          	addw	a5,a5,a4
    80000094:	04878063          	beq	a5,s0,800000d4 <main+0xac>
    80000098:	0014041b          	addiw	s0,s0,1
    8000009c:	fd4414e3          	bne	s0,s4,80000064 <main+0x3c>
    800000a0:	ffca8513          	addi	a0,s5,-4
    800000a4:	00153513          	seqz	a0,a0
    800000a8:	f69ff0ef          	jal	ra,80000010 <check>
    800000ac:	03813083          	ld	ra,56(sp)
    800000b0:	03013403          	ld	s0,48(sp)
    800000b4:	02813483          	ld	s1,40(sp)
    800000b8:	02013903          	ld	s2,32(sp)
    800000bc:	01813983          	ld	s3,24(sp)
    800000c0:	01013a03          	ld	s4,16(sp)
    800000c4:	00813a83          	ld	s5,8(sp)
    800000c8:	00000513          	li	a0,0
    800000cc:	04010113          	addi	sp,sp,64
    800000d0:	00008067          	ret
    800000d4:	002a9793          	slli	a5,s5,0x2
    800000d8:	00f487b3          	add	a5,s1,a5
    800000dc:	0007a503          	lw	a0,0(a5)
    800000e0:	001a8a9b          	addiw	s5,s5,1
    800000e4:	40850533          	sub	a0,a0,s0
    800000e8:	00153513          	seqz	a0,a0
    800000ec:	0014041b          	addiw	s0,s0,1
    800000f0:	f21ff0ef          	jal	ra,80000010 <check>
    800000f4:	f74418e3          	bne	s0,s4,80000064 <main+0x3c>
    800000f8:	fa9ff06f          	j	800000a0 <main+0x78>

00000000800000fc <halt>:
    800000fc:	00050513          	mv	a0,a0
    80000100:	00100073          	ebreak
    80000104:	0000006f          	j	80000104 <halt+0x8>

0000000080000108 <_trm_init>:
    80000108:	ff010113          	addi	sp,sp,-16
    8000010c:	00000517          	auipc	a0,0x0
    80000110:	01c50513          	addi	a0,a0,28 # 80000128 <_etext>
    80000114:	00113423          	sd	ra,8(sp)
    80000118:	f11ff0ef          	jal	ra,80000028 <main>
    8000011c:	00050513          	mv	a0,a0
    80000120:	00100073          	ebreak
    80000124:	0000006f          	j	80000124 <_trm_init+0x1c>
