
/home/xg/ysyx-workbench/am-kernels/kernels/typing-game/build/typing-game-riscv64-nemu.elf：     文件格式 elf64-littleriscv


Disassembly of section .text:

0000000080000000 <_start>:
    80000000:	00000413          	li	s0,0
    80000004:	00015117          	auipc	sp,0x15
    80000008:	ffc10113          	addi	sp,sp,-4 # 80015000 <_end>
    8000000c:	039000ef          	jal	ra,80000844 <_trm_init>

0000000080000010 <new_char>:
    80000010:	fe010113          	addi	sp,sp,-32
    80000014:	00913423          	sd	s1,8(sp)
    80000018:	00002497          	auipc	s1,0x2
    8000001c:	a1848493          	addi	s1,s1,-1512 # 80001a30 <chars>
    80000020:	00813823          	sd	s0,16(sp)
    80000024:	00113c23          	sd	ra,24(sp)
    80000028:	01213023          	sd	s2,0(sp)
    8000002c:	00048793          	mv	a5,s1
    80000030:	00000413          	li	s0,0
    80000034:	08000693          	li	a3,128
    80000038:	00c0006f          	j	80000044 <new_char+0x34>
    8000003c:	0014041b          	addiw	s0,s0,1
    80000040:	08d40263          	beq	s0,a3,800000c4 <new_char+0xb4>
    80000044:	0007c703          	lbu	a4,0(a5)
    80000048:	01478793          	addi	a5,a5,20
    8000004c:	fe0718e3          	bnez	a4,8000003c <new_char+0x2c>
    80000050:	80000937          	lui	s2,0x80000
    80000054:	2d9000ef          	jal	ra,80000b2c <rand>
    80000058:	fff94913          	not	s2,s2
    8000005c:	012577b3          	and	a5,a0,s2
    80000060:	01a00713          	li	a4,26
    80000064:	02e7e7bb          	remw	a5,a5,a4
    80000068:	00241713          	slli	a4,s0,0x2
    8000006c:	00870733          	add	a4,a4,s0
    80000070:	00271713          	slli	a4,a4,0x2
    80000074:	00e48433          	add	s0,s1,a4
    80000078:	0000c497          	auipc	s1,0xc
    8000007c:	3c84a483          	lw	s1,968(s1) # 8000c440 <screen_w>
    80000080:	ff94849b          	addiw	s1,s1,-7
    80000084:	0417879b          	addiw	a5,a5,65
    80000088:	00f40023          	sb	a5,0(s0)
    8000008c:	2a1000ef          	jal	ra,80000b2c <rand>
    80000090:	012577b3          	and	a5,a0,s2
    80000094:	0297e7bb          	remw	a5,a5,s1
    80000098:	00042423          	sw	zero,8(s0)
    8000009c:	0000c497          	auipc	s1,0xc
    800000a0:	3a04a483          	lw	s1,928(s1) # 8000c43c <screen_h>
    800000a4:	ff14849b          	addiw	s1,s1,-15
    800000a8:	00f42223          	sw	a5,4(s0)
    800000ac:	281000ef          	jal	ra,80000b2c <rand>
    800000b0:	00f57793          	andi	a5,a0,15
    800000b4:	02d7879b          	addiw	a5,a5,45
    800000b8:	02f4c4bb          	divw	s1,s1,a5
    800000bc:	00042823          	sw	zero,16(s0)
    800000c0:	00942623          	sw	s1,12(s0)
    800000c4:	01813083          	ld	ra,24(sp)
    800000c8:	01013403          	ld	s0,16(sp)
    800000cc:	00813483          	ld	s1,8(sp)
    800000d0:	00013903          	ld	s2,0(sp)
    800000d4:	02010113          	addi	sp,sp,32
    800000d8:	00008067          	ret

00000000800000dc <game_logic_update>:
    800000dc:	00600793          	li	a5,6
    800000e0:	02f567bb          	remw	a5,a0,a5
    800000e4:	ff010113          	addi	sp,sp,-16
    800000e8:	00113423          	sd	ra,8(sp)
    800000ec:	0a078a63          	beqz	a5,800001a0 <game_logic_update+0xc4>
    800000f0:	0000ce97          	auipc	t4,0xc
    800000f4:	344e8e93          	addi	t4,t4,836 # 8000c434 <miss>
    800000f8:	0000c517          	auipc	a0,0xc
    800000fc:	34452503          	lw	a0,836(a0) # 8000c43c <screen_h>
    80000100:	000ea803          	lw	a6,0(t4)
    80000104:	ff050e1b          	addiw	t3,a0,-16
    80000108:	00002797          	auipc	a5,0x2
    8000010c:	92878793          	addi	a5,a5,-1752 # 80001a30 <chars>
    80000110:	00002617          	auipc	a2,0x2
    80000114:	32060613          	addi	a2,a2,800 # 80002430 <texture>
    80000118:	00000893          	li	a7,0
    8000011c:	01e00313          	li	t1,30
    80000120:	0180006f          	j	80000138 <game_logic_update+0x5c>
    80000124:	00b7a823          	sw	a1,16(a5)
    80000128:	00059463          	bnez	a1,80000130 <game_logic_update+0x54>
    8000012c:	00078023          	sb	zero,0(a5)
    80000130:	01478793          	addi	a5,a5,20
    80000134:	04c78863          	beq	a5,a2,80000184 <game_logic_update+0xa8>
    80000138:	0007c703          	lbu	a4,0(a5)
    8000013c:	fe070ae3          	beqz	a4,80000130 <game_logic_update+0x54>
    80000140:	0107a703          	lw	a4,16(a5)
    80000144:	fff7059b          	addiw	a1,a4,-1
    80000148:	fce04ee3          	bgtz	a4,80000124 <game_logic_update+0x48>
    8000014c:	0087a683          	lw	a3,8(a5)
    80000150:	00c7a703          	lw	a4,12(a5)
    80000154:	00d706bb          	addw	a3,a4,a3
    80000158:	00d7a423          	sw	a3,8(a5)
    8000015c:	0106871b          	addiw	a4,a3,16
    80000160:	0206cc63          	bltz	a3,80000198 <game_logic_update+0xbc>
    80000164:	fca746e3          	blt	a4,a0,80000130 <game_logic_update+0x54>
    80000168:	0007a623          	sw	zero,12(a5)
    8000016c:	01c7a423          	sw	t3,8(a5)
    80000170:	0067a823          	sw	t1,16(a5)
    80000174:	01478793          	addi	a5,a5,20
    80000178:	0018081b          	addiw	a6,a6,1
    8000017c:	00100893          	li	a7,1
    80000180:	fac79ce3          	bne	a5,a2,80000138 <game_logic_update+0x5c>
    80000184:	00088463          	beqz	a7,8000018c <game_logic_update+0xb0>
    80000188:	010ea023          	sw	a6,0(t4)
    8000018c:	00813083          	ld	ra,8(sp)
    80000190:	01010113          	addi	sp,sp,16
    80000194:	00008067          	ret
    80000198:	00078023          	sb	zero,0(a5)
    8000019c:	fc9ff06f          	j	80000164 <game_logic_update+0x88>
    800001a0:	e71ff0ef          	jal	ra,80000010 <new_char>
    800001a4:	f4dff06f          	j	800000f0 <game_logic_update+0x14>

00000000800001a8 <render>:
    800001a8:	f9010113          	addi	sp,sp,-112
    800001ac:	04913c23          	sd	s1,88(sp)
    800001b0:	0000c497          	auipc	s1,0xc
    800001b4:	28848493          	addi	s1,s1,648 # 8000c438 <n.0>
    800001b8:	0004a783          	lw	a5,0(s1)
    800001bc:	06113423          	sd	ra,104(sp)
    800001c0:	06813023          	sd	s0,96(sp)
    800001c4:	05213823          	sd	s2,80(sp)
    800001c8:	05313423          	sd	s3,72(sp)
    800001cc:	05413023          	sd	s4,64(sp)
    800001d0:	03513c23          	sd	s5,56(sp)
    800001d4:	03613823          	sd	s6,48(sp)
    800001d8:	03713423          	sd	s7,40(sp)
    800001dc:	1af05863          	blez	a5,8000038c <render+0x1e4>
    800001e0:	00100a13          	li	s4,1
    800001e4:	024a1a13          	slli	s4,s4,0x24
    800001e8:	0000c997          	auipc	s3,0xc
    800001ec:	e4898993          	addi	s3,s3,-440 # 8000c030 <x.2>
    800001f0:	0000c917          	auipc	s2,0xc
    800001f4:	04090913          	addi	s2,s2,64 # 8000c230 <y.1>
    800001f8:	00000413          	li	s0,0
    800001fc:	00001a97          	auipc	s5,0x1
    80000200:	634a8a93          	addi	s5,s5,1588 # 80001830 <blank>
    80000204:	00010b13          	mv	s6,sp
    80000208:	008a0a13          	addi	s4,s4,8
    8000020c:	00092783          	lw	a5,0(s2)
    80000210:	0009a703          	lw	a4,0(s3)
    80000214:	000b0593          	mv	a1,s6
    80000218:	00b00513          	li	a0,11
    8000021c:	00f12223          	sw	a5,4(sp)
    80000220:	00e12023          	sw	a4,0(sp)
    80000224:	01513423          	sd	s5,8(sp)
    80000228:	01413823          	sd	s4,16(sp)
    8000022c:	00010c23          	sb	zero,24(sp)
    80000230:	740000ef          	jal	ra,80000970 <ioe_write>
    80000234:	0004a783          	lw	a5,0(s1)
    80000238:	0014041b          	addiw	s0,s0,1
    8000023c:	00498993          	addi	s3,s3,4
    80000240:	00490913          	addi	s2,s2,4
    80000244:	fcf444e3          	blt	s0,a5,8000020c <render+0x64>
    80000248:	00100913          	li	s2,1
    8000024c:	02491913          	slli	s2,s2,0x24
    80000250:	0000c797          	auipc	a5,0xc
    80000254:	1e07a423          	sw	zero,488(a5) # 8000c438 <n.0>
    80000258:	00001417          	auipc	s0,0x1
    8000025c:	7d840413          	addi	s0,s0,2008 # 80001a30 <chars>
    80000260:	00002b97          	auipc	s7,0x2
    80000264:	1d0b8b93          	addi	s7,s7,464 # 80002430 <texture>
    80000268:	0000ca97          	auipc	s5,0xc
    8000026c:	dc8a8a93          	addi	s5,s5,-568 # 8000c030 <x.2>
    80000270:	0000ca17          	auipc	s4,0xc
    80000274:	fc0a0a13          	addi	s4,s4,-64 # 8000c230 <y.1>
    80000278:	00002997          	auipc	s3,0x2
    8000027c:	1b898993          	addi	s3,s3,440 # 80002430 <texture>
    80000280:	00890913          	addi	s2,s2,8
    80000284:	0300006f          	j	800002b4 <render+0x10c>
    80000288:	00e787b3          	add	a5,a5,a4
    8000028c:	00979793          	slli	a5,a5,0x9
    80000290:	013787b3          	add	a5,a5,s3
    80000294:	01012023          	sw	a6,0(sp)
    80000298:	00c12223          	sw	a2,4(sp)
    8000029c:	00f13423          	sd	a5,8(sp)
    800002a0:	01213823          	sd	s2,16(sp)
    800002a4:	00010c23          	sb	zero,24(sp)
    800002a8:	6c8000ef          	jal	ra,80000970 <ioe_write>
    800002ac:	01440413          	addi	s0,s0,20
    800002b0:	05740e63          	beq	s0,s7,8000030c <render+0x164>
    800002b4:	00044703          	lbu	a4,0(s0)
    800002b8:	000b0593          	mv	a1,s6
    800002bc:	00b00513          	li	a0,11
    800002c0:	fbf7079b          	addiw	a5,a4,-65
    800002c4:	fe0704e3          	beqz	a4,800002ac <render+0x104>
    800002c8:	0004a703          	lw	a4,0(s1)
    800002cc:	00442803          	lw	a6,4(s0)
    800002d0:	00842603          	lw	a2,8(s0)
    800002d4:	00271693          	slli	a3,a4,0x2
    800002d8:	00c42883          	lw	a7,12(s0)
    800002dc:	00da8333          	add	t1,s5,a3
    800002e0:	0017071b          	addiw	a4,a4,1
    800002e4:	00da06b3          	add	a3,s4,a3
    800002e8:	00e4a023          	sw	a4,0(s1)
    800002ec:	01032023          	sw	a6,0(t1)
    800002f0:	00c6a023          	sw	a2,0(a3)
    800002f4:	00000713          	li	a4,0
    800002f8:	f91048e3          	bgtz	a7,80000288 <render+0xe0>
    800002fc:	03400713          	li	a4,52
    80000300:	f80894e3          	bnez	a7,80000288 <render+0xe0>
    80000304:	01a00713          	li	a4,26
    80000308:	f81ff06f          	j	80000288 <render+0xe0>
    8000030c:	00100793          	li	a5,1
    80000310:	000b0593          	mv	a1,s6
    80000314:	00b00513          	li	a0,11
    80000318:	00013023          	sd	zero,0(sp)
    8000031c:	00013423          	sd	zero,8(sp)
    80000320:	00013823          	sd	zero,16(sp)
    80000324:	00f10c23          	sb	a5,24(sp)
    80000328:	02800413          	li	s0,40
    8000032c:	644000ef          	jal	ra,80000970 <ioe_write>
    80000330:	fff4041b          	addiw	s0,s0,-1
    80000334:	00800513          	li	a0,8
    80000338:	4f0000ef          	jal	ra,80000828 <putch>
    8000033c:	fe041ae3          	bnez	s0,80000330 <render+0x188>
    80000340:	06013403          	ld	s0,96(sp)
    80000344:	06813083          	ld	ra,104(sp)
    80000348:	05813483          	ld	s1,88(sp)
    8000034c:	05013903          	ld	s2,80(sp)
    80000350:	04813983          	ld	s3,72(sp)
    80000354:	04013a03          	ld	s4,64(sp)
    80000358:	03813a83          	ld	s5,56(sp)
    8000035c:	03013b03          	ld	s6,48(sp)
    80000360:	02813b83          	ld	s7,40(sp)
    80000364:	0000c697          	auipc	a3,0xc
    80000368:	0e06a683          	lw	a3,224(a3) # 8000c444 <wrong>
    8000036c:	0000c617          	auipc	a2,0xc
    80000370:	0c862603          	lw	a2,200(a2) # 8000c434 <miss>
    80000374:	0000c597          	auipc	a1,0xc
    80000378:	0bc5a583          	lw	a1,188(a1) # 8000c430 <hit>
    8000037c:	00001517          	auipc	a0,0x1
    80000380:	bbc50513          	addi	a0,a0,-1092 # 80000f38 <_etext>
    80000384:	07010113          	addi	sp,sp,112
    80000388:	7d80006f          	j	80000b60 <printf>
    8000038c:	00010b13          	mv	s6,sp
    80000390:	eb9ff06f          	j	80000248 <render+0xa0>

0000000080000394 <check_hit>:
    80000394:	00001817          	auipc	a6,0x1
    80000398:	69c80813          	addi	a6,a6,1692 # 80001a30 <chars>
    8000039c:	00080793          	mv	a5,a6
    800003a0:	00000713          	li	a4,0
    800003a4:	fff00593          	li	a1,-1
    800003a8:	fff00313          	li	t1,-1
    800003ac:	08000613          	li	a2,128
    800003b0:	0100006f          	j	800003c0 <check_hit+0x2c>
    800003b4:	0017071b          	addiw	a4,a4,1
    800003b8:	01478793          	addi	a5,a5,20
    800003bc:	04c70263          	beq	a4,a2,80000400 <check_hit+0x6c>
    800003c0:	0007c683          	lbu	a3,0(a5)
    800003c4:	fea698e3          	bne	a3,a0,800003b4 <check_hit+0x20>
    800003c8:	00c7a683          	lw	a3,12(a5)
    800003cc:	fed054e3          	blez	a3,800003b4 <check_hit+0x20>
    800003d0:	00259693          	slli	a3,a1,0x2
    800003d4:	00b686b3          	add	a3,a3,a1
    800003d8:	00269693          	slli	a3,a3,0x2
    800003dc:	00d806b3          	add	a3,a6,a3
    800003e0:	00658863          	beq	a1,t1,800003f0 <check_hit+0x5c>
    800003e4:	0087a883          	lw	a7,8(a5)
    800003e8:	0086a683          	lw	a3,8(a3)
    800003ec:	fd16d4e3          	bge	a3,a7,800003b4 <check_hit+0x20>
    800003f0:	00070593          	mv	a1,a4
    800003f4:	0017071b          	addiw	a4,a4,1
    800003f8:	01478793          	addi	a5,a5,20
    800003fc:	fcc712e3          	bne	a4,a2,800003c0 <check_hit+0x2c>
    80000400:	fff00793          	li	a5,-1
    80000404:	04f58463          	beq	a1,a5,8000044c <check_hit+0xb8>
    80000408:	0000c717          	auipc	a4,0xc
    8000040c:	03472703          	lw	a4,52(a4) # 8000c43c <screen_h>
    80000410:	00f00793          	li	a5,15
    80000414:	40e787bb          	subw	a5,a5,a4
    80000418:	01e00713          	li	a4,30
    8000041c:	02e7c7bb          	divw	a5,a5,a4
    80000420:	0000c617          	auipc	a2,0xc
    80000424:	01060613          	addi	a2,a2,16 # 8000c430 <hit>
    80000428:	00062683          	lw	a3,0(a2)
    8000042c:	00259713          	slli	a4,a1,0x2
    80000430:	00b70733          	add	a4,a4,a1
    80000434:	00271713          	slli	a4,a4,0x2
    80000438:	0016869b          	addiw	a3,a3,1
    8000043c:	00e80833          	add	a6,a6,a4
    80000440:	00d62023          	sw	a3,0(a2)
    80000444:	00f82623          	sw	a5,12(a6)
    80000448:	00008067          	ret
    8000044c:	0000c717          	auipc	a4,0xc
    80000450:	ff870713          	addi	a4,a4,-8 # 8000c444 <wrong>
    80000454:	00072783          	lw	a5,0(a4)
    80000458:	0017879b          	addiw	a5,a5,1
    8000045c:	00f72023          	sw	a5,0(a4)
    80000460:	00008067          	ret

0000000080000464 <video_init>:
    80000464:	fa010113          	addi	sp,sp,-96
    80000468:	00010593          	mv	a1,sp
    8000046c:	00900513          	li	a0,9
    80000470:	04113c23          	sd	ra,88(sp)
    80000474:	05213023          	sd	s2,64(sp)
    80000478:	03313c23          	sd	s3,56(sp)
    8000047c:	03413823          	sd	s4,48(sp)
    80000480:	04813823          	sd	s0,80(sp)
    80000484:	04913423          	sd	s1,72(sp)
    80000488:	03513423          	sd	s5,40(sp)
    8000048c:	03613023          	sd	s6,32(sp)
    80000490:	4c4000ef          	jal	ra,80000954 <ioe_read>
    80000494:	00412783          	lw	a5,4(sp)
    80000498:	0000c997          	auipc	s3,0xc
    8000049c:	fa898993          	addi	s3,s3,-88 # 8000c440 <screen_w>
    800004a0:	00010593          	mv	a1,sp
    800004a4:	00900513          	li	a0,9
    800004a8:	00f9a023          	sw	a5,0(s3)
    800004ac:	4a8000ef          	jal	ra,80000954 <ioe_read>
    800004b0:	00812783          	lw	a5,8(sp)
    800004b4:	0000c917          	auipc	s2,0xc
    800004b8:	f8890913          	addi	s2,s2,-120 # 8000c43c <screen_h>
    800004bc:	00001a17          	auipc	s4,0x1
    800004c0:	374a0a13          	addi	s4,s4,884 # 80001830 <blank>
    800004c4:	002a16b7          	lui	a3,0x2a1
    800004c8:	00f92023          	sw	a5,0(s2)
    800004cc:	000a0713          	mv	a4,s4
    800004d0:	00001617          	auipc	a2,0x1
    800004d4:	56060613          	addi	a2,a2,1376 # 80001a30 <chars>
    800004d8:	a2968693          	addi	a3,a3,-1495 # 2a0a29 <_entry_offset+0x2a0a29>
    800004dc:	00d72023          	sw	a3,0(a4)
    800004e0:	00470713          	addi	a4,a4,4
    800004e4:	fec71ce3          	bne	a4,a2,800004dc <video_init+0x78>
    800004e8:	0009a703          	lw	a4,0(s3)
    800004ec:	00000493          	li	s1,0
    800004f0:	00800b13          	li	s6,8
    800004f4:	01000a93          	li	s5,16
    800004f8:	06e05863          	blez	a4,80000568 <video_init+0x104>
    800004fc:	00000413          	li	s0,0
    80000500:	04f05c63          	blez	a5,80000558 <video_init+0xf4>
    80000504:	408786bb          	subw	a3,a5,s0
    80000508:	4097063b          	subw	a2,a4,s1
    8000050c:	00812223          	sw	s0,4(sp)
    80000510:	00912023          	sw	s1,0(sp)
    80000514:	01413423          	sd	s4,8(sp)
    80000518:	00010593          	mv	a1,sp
    8000051c:	00b00513          	li	a0,11
    80000520:	00060713          	mv	a4,a2
    80000524:	00068793          	mv	a5,a3
    80000528:	0104041b          	addiw	s0,s0,16
    8000052c:	00cb5463          	bge	s6,a2,80000534 <video_init+0xd0>
    80000530:	00800713          	li	a4,8
    80000534:	00e12823          	sw	a4,16(sp)
    80000538:	00dad463          	bge	s5,a3,80000540 <video_init+0xdc>
    8000053c:	01000793          	li	a5,16
    80000540:	00f12a23          	sw	a5,20(sp)
    80000544:	00010c23          	sb	zero,24(sp)
    80000548:	428000ef          	jal	ra,80000970 <ioe_write>
    8000054c:	00092783          	lw	a5,0(s2)
    80000550:	0009a703          	lw	a4,0(s3)
    80000554:	faf448e3          	blt	s0,a5,80000504 <video_init+0xa0>
    80000558:	0084849b          	addiw	s1,s1,8
    8000055c:	00e4d663          	bge	s1,a4,80000568 <video_init+0x104>
    80000560:	00092783          	lw	a5,0(s2)
    80000564:	f99ff06f          	j	800004fc <video_init+0x98>
    80000568:	002a1837          	lui	a6,0x2a1
    8000056c:	00eef2b7          	lui	t0,0xeef
    80000570:	0000dfb7          	lui	t6,0xd
    80000574:	00ff0f37          	lui	t5,0xff0
    80000578:	00007e37          	lui	t3,0x7
    8000057c:	00003337          	lui	t1,0x3
    80000580:	00001b37          	lui	s6,0x1
    80000584:	00001a97          	auipc	s5,0x1
    80000588:	104a8a93          	addi	s5,s5,260 # 80001688 <font>
    8000058c:	00002a17          	auipc	s4,0x2
    80000590:	ea4a0a13          	addi	s4,s4,-348 # 80002430 <texture>
    80000594:	00000993          	li	s3,0
    80000598:	a2980813          	addi	a6,a6,-1495 # 2a0a29 <_entry_offset+0x2a0a29>
    8000059c:	eee28293          	addi	t0,t0,-274 # eeeeee <_entry_offset+0xeeeeee>
    800005a0:	c33f8f93          	addi	t6,t6,-973 # cc33 <_entry_offset+0xcc33>
    800005a4:	033f0f13          	addi	t5,t5,51 # ff0033 <_entry_offset+0xff0033>
    800005a8:	800e0e13          	addi	t3,t3,-2048 # 6800 <_entry_offset+0x6800>
    800005ac:	40030313          	addi	t1,t1,1024 # 3400 <_entry_offset+0x3400>
    800005b0:	fff00e93          	li	t4,-1
    800005b4:	08000913          	li	s2,128
    800005b8:	d00b0b13          	addi	s6,s6,-768 # d00 <_entry_offset+0xd00>
    800005bc:	000a0493          	mv	s1,s4
    800005c0:	000a8413          	mv	s0,s5
    800005c4:	00000393          	li	t2,0
    800005c8:	00044883          	lbu	a7,0(s0)
    800005cc:	00048793          	mv	a5,s1
    800005d0:	00700713          	li	a4,7
    800005d4:	0300006f          	j	80000604 <video_init+0x1a0>
    800005d8:	00028693          	mv	a3,t0
    800005dc:	00d7a023          	sw	a3,0(a5)
    800005e0:	01c785b3          	add	a1,a5,t3
    800005e4:	000f8513          	mv	a0,t6
    800005e8:	006786b3          	add	a3,a5,t1
    800005ec:	000f0613          	mv	a2,t5
    800005f0:	00a5a023          	sw	a0,0(a1)
    800005f4:	00c6a023          	sw	a2,0(a3)
    800005f8:	fff7071b          	addiw	a4,a4,-1
    800005fc:	00478793          	addi	a5,a5,4
    80000600:	03d70e63          	beq	a4,t4,8000063c <video_init+0x1d8>
    80000604:	40e8d6bb          	sraw	a3,a7,a4
    80000608:	0016f693          	andi	a3,a3,1
    8000060c:	fc0696e3          	bnez	a3,800005d8 <video_init+0x174>
    80000610:	00080693          	mv	a3,a6
    80000614:	00d7a023          	sw	a3,0(a5)
    80000618:	01c785b3          	add	a1,a5,t3
    8000061c:	00080513          	mv	a0,a6
    80000620:	006786b3          	add	a3,a5,t1
    80000624:	00080613          	mv	a2,a6
    80000628:	00a5a023          	sw	a0,0(a1)
    8000062c:	00c6a023          	sw	a2,0(a3)
    80000630:	fff7071b          	addiw	a4,a4,-1
    80000634:	00478793          	addi	a5,a5,4
    80000638:	fdd716e3          	bne	a4,t4,80000604 <video_init+0x1a0>
    8000063c:	0083839b          	addiw	t2,t2,8
    80000640:	00140413          	addi	s0,s0,1
    80000644:	02048493          	addi	s1,s1,32
    80000648:	f92390e3          	bne	t2,s2,800005c8 <video_init+0x164>
    8000064c:	08098993          	addi	s3,s3,128
    80000650:	010a8a93          	addi	s5,s5,16
    80000654:	200a0a13          	addi	s4,s4,512
    80000658:	f76992e3          	bne	s3,s6,800005bc <video_init+0x158>
    8000065c:	05813083          	ld	ra,88(sp)
    80000660:	05013403          	ld	s0,80(sp)
    80000664:	04813483          	ld	s1,72(sp)
    80000668:	04013903          	ld	s2,64(sp)
    8000066c:	03813983          	ld	s3,56(sp)
    80000670:	03013a03          	ld	s4,48(sp)
    80000674:	02813a83          	ld	s5,40(sp)
    80000678:	02013b03          	ld	s6,32(sp)
    8000067c:	06010113          	addi	sp,sp,96
    80000680:	00008067          	ret

0000000080000684 <main>:
    80000684:	fb010113          	addi	sp,sp,-80
    80000688:	04113423          	sd	ra,72(sp)
    8000068c:	04813023          	sd	s0,64(sp)
    80000690:	02913c23          	sd	s1,56(sp)
    80000694:	03213823          	sd	s2,48(sp)
    80000698:	03313423          	sd	s3,40(sp)
    8000069c:	03413023          	sd	s4,32(sp)
    800006a0:	01513c23          	sd	s5,24(sp)
    800006a4:	254000ef          	jal	ra,800008f8 <ioe_init>
    800006a8:	dbdff0ef          	jal	ra,80000464 <video_init>
    800006ac:	00810593          	addi	a1,sp,8
    800006b0:	00400513          	li	a0,4
    800006b4:	2a0000ef          	jal	ra,80000954 <ioe_read>
    800006b8:	00814783          	lbu	a5,8(sp)
    800006bc:	06079063          	bnez	a5,8000071c <main+0x98>
    800006c0:	00001417          	auipc	s0,0x1
    800006c4:	89840413          	addi	s0,s0,-1896 # 80000f58 <_etext+0x20>
    800006c8:	04100513          	li	a0,65
    800006cc:	00140413          	addi	s0,s0,1
    800006d0:	158000ef          	jal	ra,80000828 <putch>
    800006d4:	00044503          	lbu	a0,0(s0)
    800006d8:	fe051ae3          	bnez	a0,800006cc <main+0x48>
    800006dc:	00001417          	auipc	s0,0x1
    800006e0:	88c40413          	addi	s0,s0,-1908 # 80000f68 <_etext+0x30>
    800006e4:	07200513          	li	a0,114
    800006e8:	00140413          	addi	s0,s0,1
    800006ec:	13c000ef          	jal	ra,80000828 <putch>
    800006f0:	00044503          	lbu	a0,0(s0)
    800006f4:	fe051ae3          	bnez	a0,800006e8 <main+0x64>
    800006f8:	00001417          	auipc	s0,0x1
    800006fc:	88040413          	addi	s0,s0,-1920 # 80000f78 <_etext+0x40>
    80000700:	02000513          	li	a0,32
    80000704:	00140413          	addi	s0,s0,1
    80000708:	120000ef          	jal	ra,80000828 <putch>
    8000070c:	00044503          	lbu	a0,0(s0)
    80000710:	fe051ae3          	bnez	a0,80000704 <main+0x80>
    80000714:	00100513          	li	a0,1
    80000718:	120000ef          	jal	ra,80000838 <halt>
    8000071c:	00810593          	addi	a1,sp,8
    80000720:	00700513          	li	a0,7
    80000724:	230000ef          	jal	ra,80000954 <ioe_read>
    80000728:	00814783          	lbu	a5,8(sp)
    8000072c:	04079e63          	bnez	a5,80000788 <main+0x104>
    80000730:	00001417          	auipc	s0,0x1
    80000734:	82840413          	addi	s0,s0,-2008 # 80000f58 <_etext+0x20>
    80000738:	04100513          	li	a0,65
    8000073c:	00140413          	addi	s0,s0,1
    80000740:	0e8000ef          	jal	ra,80000828 <putch>
    80000744:	00044503          	lbu	a0,0(s0)
    80000748:	fe051ae3          	bnez	a0,8000073c <main+0xb8>
    8000074c:	00001417          	auipc	s0,0x1
    80000750:	87440413          	addi	s0,s0,-1932 # 80000fc0 <_etext+0x88>
    80000754:	07200513          	li	a0,114
    80000758:	00140413          	addi	s0,s0,1
    8000075c:	0cc000ef          	jal	ra,80000828 <putch>
    80000760:	00044503          	lbu	a0,0(s0)
    80000764:	fe051ae3          	bnez	a0,80000758 <main+0xd4>
    80000768:	00001417          	auipc	s0,0x1
    8000076c:	87040413          	addi	s0,s0,-1936 # 80000fd8 <_etext+0xa0>
    80000770:	02000513          	li	a0,32
    80000774:	00140413          	addi	s0,s0,1
    80000778:	0b0000ef          	jal	ra,80000828 <putch>
    8000077c:	00044503          	lbu	a0,0(s0)
    80000780:	fe051ae3          	bnez	a0,80000774 <main+0xf0>
    80000784:	f91ff06f          	j	80000714 <main+0x90>
    80000788:	00001517          	auipc	a0,0x1
    8000078c:	89850513          	addi	a0,a0,-1896 # 80001020 <_etext+0xe8>
    80000790:	00008a37          	lui	s4,0x8
    80000794:	3cc000ef          	jal	ra,80000b60 <printf>
    80000798:	00000a93          	li	s5,0
    8000079c:	00000413          	li	s0,0
    800007a0:	235a0a13          	addi	s4,s4,565 # 8235 <_entry_offset+0x8235>
    800007a4:	00100913          	li	s2,1
    800007a8:	00001997          	auipc	s3,0x1
    800007ac:	9e098993          	addi	s3,s3,-1568 # 80001188 <lut>
    800007b0:	00810593          	addi	a1,sp,8
    800007b4:	00600513          	li	a0,6
    800007b8:	19c000ef          	jal	ra,80000954 <ioe_read>
    800007bc:	00813483          	ld	s1,8(sp)
    800007c0:	0344d4b3          	divu	s1,s1,s4
    800007c4:	0004849b          	sext.w	s1,s1
    800007c8:	00945a63          	bge	s0,s1,800007dc <main+0x158>
    800007cc:	00040513          	mv	a0,s0
    800007d0:	0014041b          	addiw	s0,s0,1
    800007d4:	909ff0ef          	jal	ra,800000dc <game_logic_update>
    800007d8:	fe849ae3          	bne	s1,s0,800007cc <main+0x148>
    800007dc:	00810593          	addi	a1,sp,8
    800007e0:	00800513          	li	a0,8
    800007e4:	170000ef          	jal	ra,80000954 <ioe_read>
    800007e8:	00c12783          	lw	a5,12(sp)
    800007ec:	00814703          	lbu	a4,8(sp)
    800007f0:	02078063          	beqz	a5,80000810 <main+0x18c>
    800007f4:	fe0704e3          	beqz	a4,800007dc <main+0x158>
    800007f8:	03278463          	beq	a5,s2,80000820 <main+0x19c>
    800007fc:	00f987b3          	add	a5,s3,a5
    80000800:	0007c503          	lbu	a0,0(a5)
    80000804:	fc050ce3          	beqz	a0,800007dc <main+0x158>
    80000808:	b8dff0ef          	jal	ra,80000394 <check_hit>
    8000080c:	fd1ff06f          	j	800007dc <main+0x158>
    80000810:	fa8ad0e3          	bge	s5,s0,800007b0 <main+0x12c>
    80000814:	995ff0ef          	jal	ra,800001a8 <render>
    80000818:	00040a93          	mv	s5,s0
    8000081c:	f95ff06f          	j	800007b0 <main+0x12c>
    80000820:	00000513          	li	a0,0
    80000824:	014000ef          	jal	ra,80000838 <halt>

0000000080000828 <putch>:
    80000828:	00500793          	li	a5,5
    8000082c:	01d79793          	slli	a5,a5,0x1d
    80000830:	3ea78c23          	sb	a0,1016(a5)
    80000834:	00008067          	ret

0000000080000838 <halt>:
    80000838:	00050513          	mv	a0,a0
    8000083c:	00100073          	ebreak
    80000840:	0000006f          	j	80000840 <halt+0x8>

0000000080000844 <_trm_init>:
    80000844:	ff010113          	addi	sp,sp,-16
    80000848:	00001517          	auipc	a0,0x1
    8000084c:	93850513          	addi	a0,a0,-1736 # 80001180 <mainargs>
    80000850:	00113423          	sd	ra,8(sp)
    80000854:	e31ff0ef          	jal	ra,80000684 <main>
    80000858:	00050513          	mv	a0,a0
    8000085c:	00100073          	ebreak
    80000860:	0000006f          	j	80000860 <_trm_init+0x1c>

0000000080000864 <__am_timer_config>:
    80000864:	00100793          	li	a5,1
    80000868:	00f50023          	sb	a5,0(a0)
    8000086c:	00f500a3          	sb	a5,1(a0)
    80000870:	00008067          	ret

0000000080000874 <__am_input_config>:
    80000874:	00100793          	li	a5,1
    80000878:	00f50023          	sb	a5,0(a0)
    8000087c:	00008067          	ret

0000000080000880 <__am_uart_config>:
    80000880:	00050023          	sb	zero,0(a0)
    80000884:	00008067          	ret

0000000080000888 <__am_net_config>:
    80000888:	00050023          	sb	zero,0(a0)
    8000088c:	00008067          	ret

0000000080000890 <fail>:
    80000890:	ff010113          	addi	sp,sp,-16
    80000894:	00813023          	sd	s0,0(sp)
    80000898:	00113423          	sd	ra,8(sp)
    8000089c:	00000417          	auipc	s0,0x0
    800008a0:	6bc40413          	addi	s0,s0,1724 # 80000f58 <_etext+0x20>
    800008a4:	04100513          	li	a0,65
    800008a8:	00140413          	addi	s0,s0,1
    800008ac:	f7dff0ef          	jal	ra,80000828 <putch>
    800008b0:	00044503          	lbu	a0,0(s0)
    800008b4:	fe051ae3          	bnez	a0,800008a8 <fail+0x18>
    800008b8:	00000417          	auipc	s0,0x0
    800008bc:	78040413          	addi	s0,s0,1920 # 80001038 <_etext+0x100>
    800008c0:	06100513          	li	a0,97
    800008c4:	00140413          	addi	s0,s0,1
    800008c8:	f61ff0ef          	jal	ra,80000828 <putch>
    800008cc:	00044503          	lbu	a0,0(s0)
    800008d0:	fe051ae3          	bnez	a0,800008c4 <fail+0x34>
    800008d4:	00000417          	auipc	s0,0x0
    800008d8:	78440413          	addi	s0,s0,1924 # 80001058 <_etext+0x120>
    800008dc:	02000513          	li	a0,32
    800008e0:	00140413          	addi	s0,s0,1
    800008e4:	f45ff0ef          	jal	ra,80000828 <putch>
    800008e8:	00044503          	lbu	a0,0(s0)
    800008ec:	fe051ae3          	bnez	a0,800008e0 <fail+0x50>
    800008f0:	00100513          	li	a0,1
    800008f4:	f45ff0ef          	jal	ra,80000838 <halt>

00000000800008f8 <ioe_init>:
    800008f8:	ff010113          	addi	sp,sp,-16
    800008fc:	00113423          	sd	ra,8(sp)
    80000900:	00001797          	auipc	a5,0x1
    80000904:	98878793          	addi	a5,a5,-1656 # 80001288 <lut>
    80000908:	00001697          	auipc	a3,0x1
    8000090c:	d8068693          	addi	a3,a3,-640 # 80001688 <font>
    80000910:	00000617          	auipc	a2,0x0
    80000914:	f8060613          	addi	a2,a2,-128 # 80000890 <fail>
    80000918:	00c0006f          	j	80000924 <ioe_init+0x2c>
    8000091c:	00878793          	addi	a5,a5,8
    80000920:	00d78c63          	beq	a5,a3,80000938 <ioe_init+0x40>
    80000924:	0007b703          	ld	a4,0(a5)
    80000928:	fe071ae3          	bnez	a4,8000091c <ioe_init+0x24>
    8000092c:	00c7b023          	sd	a2,0(a5)
    80000930:	00878793          	addi	a5,a5,8
    80000934:	fed798e3          	bne	a5,a3,80000924 <ioe_init+0x2c>
    80000938:	0d0000ef          	jal	ra,80000a08 <__am_gpu_init>
    8000093c:	050000ef          	jal	ra,8000098c <__am_timer_init>
    80000940:	1c0000ef          	jal	ra,80000b00 <__am_audio_init>
    80000944:	00813083          	ld	ra,8(sp)
    80000948:	00100513          	li	a0,1
    8000094c:	01010113          	addi	sp,sp,16
    80000950:	00008067          	ret

0000000080000954 <ioe_read>:
    80000954:	00351513          	slli	a0,a0,0x3
    80000958:	00001797          	auipc	a5,0x1
    8000095c:	93078793          	addi	a5,a5,-1744 # 80001288 <lut>
    80000960:	00a787b3          	add	a5,a5,a0
    80000964:	0007b783          	ld	a5,0(a5)
    80000968:	00058513          	mv	a0,a1
    8000096c:	00078067          	jr	a5

0000000080000970 <ioe_write>:
    80000970:	00351513          	slli	a0,a0,0x3
    80000974:	00001797          	auipc	a5,0x1
    80000978:	91478793          	addi	a5,a5,-1772 # 80001288 <lut>
    8000097c:	00a787b3          	add	a5,a5,a0
    80000980:	0007b783          	ld	a5,0(a5)
    80000984:	00058513          	mv	a0,a1
    80000988:	00078067          	jr	a5

000000008000098c <__am_timer_init>:
    8000098c:	00008067          	ret

0000000080000990 <__am_timer_uptime>:
    80000990:	00500713          	li	a4,5
    80000994:	01d71713          	slli	a4,a4,0x1d
    80000998:	04c72783          	lw	a5,76(a4)
    8000099c:	04872703          	lw	a4,72(a4)
    800009a0:	02079793          	slli	a5,a5,0x20
    800009a4:	02071713          	slli	a4,a4,0x20
    800009a8:	02075713          	srli	a4,a4,0x20
    800009ac:	00e787b3          	add	a5,a5,a4
    800009b0:	00f53023          	sd	a5,0(a0)
    800009b4:	00008067          	ret

00000000800009b8 <__am_timer_rtc>:
    800009b8:	76c00793          	li	a5,1900
    800009bc:	00052a23          	sw	zero,20(a0)
    800009c0:	00052823          	sw	zero,16(a0)
    800009c4:	00052623          	sw	zero,12(a0)
    800009c8:	00052423          	sw	zero,8(a0)
    800009cc:	00052223          	sw	zero,4(a0)
    800009d0:	00f52023          	sw	a5,0(a0)
    800009d4:	00008067          	ret

00000000800009d8 <__am_input_keybrd>:
    800009d8:	00500713          	li	a4,5
    800009dc:	01d71713          	slli	a4,a4,0x1d
    800009e0:	06072783          	lw	a5,96(a4)
    800009e4:	06072703          	lw	a4,96(a4)
    800009e8:	ffff86b7          	lui	a3,0xffff8
    800009ec:	00f7d793          	srli	a5,a5,0xf
    800009f0:	fff68693          	addi	a3,a3,-1 # ffffffffffff7fff <_end+0xffffffff7ffe2fff>
    800009f4:	0017f793          	andi	a5,a5,1
    800009f8:	00d77733          	and	a4,a4,a3
    800009fc:	00f50023          	sb	a5,0(a0)
    80000a00:	00e52223          	sw	a4,4(a0)
    80000a04:	00008067          	ret

0000000080000a08 <__am_gpu_init>:
    80000a08:	00008067          	ret

0000000080000a0c <__am_gpu_config>:
    80000a0c:	00500793          	li	a5,5
    80000a10:	01d79793          	slli	a5,a5,0x1d
    80000a14:	1007a703          	lw	a4,256(a5)
    80000a18:	1007a783          	lw	a5,256(a5)
    80000a1c:	00100693          	li	a3,1
    80000a20:	0107571b          	srliw	a4,a4,0x10
    80000a24:	03079793          	slli	a5,a5,0x30
    80000a28:	0307d793          	srli	a5,a5,0x30
    80000a2c:	00d51023          	sh	a3,0(a0)
    80000a30:	00e52223          	sw	a4,4(a0)
    80000a34:	00f52423          	sw	a5,8(a0)
    80000a38:	00052623          	sw	zero,12(a0)
    80000a3c:	00008067          	ret

0000000080000a40 <__am_gpu_fbdraw>:
    80000a40:	00452e83          	lw	t4,4(a0)
    80000a44:	01452283          	lw	t0,20(a0)
    80000a48:	ff010113          	addi	sp,sp,-16
    80000a4c:	00813423          	sd	s0,8(sp)
    80000a50:	01d282bb          	addw	t0,t0,t4
    80000a54:	00052f83          	lw	t6,0(a0)
    80000a58:	01052383          	lw	t2,16(a0)
    80000a5c:	00853403          	ld	s0,8(a0)
    80000a60:	065ed863          	bge	t4,t0,80000ad0 <__am_gpu_fbdraw+0x90>
    80000a64:	00500313          	li	t1,5
    80000a68:	0a100893          	li	a7,161
    80000a6c:	007f85bb          	addw	a1,t6,t2
    80000a70:	00000f13          	li	t5,0
    80000a74:	0003839b          	sext.w	t2,t2
    80000a78:	01d31313          	slli	t1,t1,0x1d
    80000a7c:	01889893          	slli	a7,a7,0x18
    80000a80:	04bfd263          	bge	t6,a1,80000ac4 <__am_gpu_fbdraw+0x84>
    80000a84:	002f1693          	slli	a3,t5,0x2
    80000a88:	000e881b          	sext.w	a6,t4
    80000a8c:	00d406b3          	add	a3,s0,a3
    80000a90:	000f8713          	mv	a4,t6
    80000a94:	10032783          	lw	a5,256(t1)
    80000a98:	0006a603          	lw	a2,0(a3)
    80000a9c:	00468693          	addi	a3,a3,4
    80000aa0:	0107d79b          	srliw	a5,a5,0x10
    80000aa4:	030787bb          	mulw	a5,a5,a6
    80000aa8:	00e787bb          	addw	a5,a5,a4
    80000aac:	02079e13          	slli	t3,a5,0x20
    80000ab0:	01ee5793          	srli	a5,t3,0x1e
    80000ab4:	00f887b3          	add	a5,a7,a5
    80000ab8:	00c7a023          	sw	a2,0(a5)
    80000abc:	0017071b          	addiw	a4,a4,1
    80000ac0:	fcb71ae3          	bne	a4,a1,80000a94 <__am_gpu_fbdraw+0x54>
    80000ac4:	001e8e9b          	addiw	t4,t4,1
    80000ac8:	007f0f3b          	addw	t5,t5,t2
    80000acc:	fa5e9ae3          	bne	t4,t0,80000a80 <__am_gpu_fbdraw+0x40>
    80000ad0:	01854783          	lbu	a5,24(a0)
    80000ad4:	00078a63          	beqz	a5,80000ae8 <__am_gpu_fbdraw+0xa8>
    80000ad8:	00500793          	li	a5,5
    80000adc:	01d79793          	slli	a5,a5,0x1d
    80000ae0:	00100713          	li	a4,1
    80000ae4:	10e7a223          	sw	a4,260(a5)
    80000ae8:	00813403          	ld	s0,8(sp)
    80000aec:	01010113          	addi	sp,sp,16
    80000af0:	00008067          	ret

0000000080000af4 <__am_gpu_status>:
    80000af4:	00100793          	li	a5,1
    80000af8:	00f50023          	sb	a5,0(a0)
    80000afc:	00008067          	ret

0000000080000b00 <__am_audio_init>:
    80000b00:	00008067          	ret

0000000080000b04 <__am_audio_config>:
    80000b04:	00050023          	sb	zero,0(a0)
    80000b08:	00008067          	ret

0000000080000b0c <__am_audio_ctrl>:
    80000b0c:	00008067          	ret

0000000080000b10 <__am_audio_status>:
    80000b10:	00052023          	sw	zero,0(a0)
    80000b14:	00008067          	ret

0000000080000b18 <__am_audio_play>:
    80000b18:	00008067          	ret

0000000080000b1c <__am_disk_config>:
    80000b1c:	00050023          	sb	zero,0(a0)
    80000b20:	00008067          	ret

0000000080000b24 <__am_disk_status>:
    80000b24:	00008067          	ret

0000000080000b28 <__am_disk_blkio>:
    80000b28:	00008067          	ret

0000000080000b2c <rand>:
    80000b2c:	00001697          	auipc	a3,0x1
    80000b30:	cfc68693          	addi	a3,a3,-772 # 80001828 <next>
    80000b34:	0006b783          	ld	a5,0(a3)
    80000b38:	41c65737          	lui	a4,0x41c65
    80000b3c:	e6d70713          	addi	a4,a4,-403 # 41c64e6d <_entry_offset+0x41c64e6d>
    80000b40:	02e787b3          	mul	a5,a5,a4
    80000b44:	00003737          	lui	a4,0x3
    80000b48:	03970713          	addi	a4,a4,57 # 3039 <_entry_offset+0x3039>
    80000b4c:	00e787b3          	add	a5,a5,a4
    80000b50:	02179513          	slli	a0,a5,0x21
    80000b54:	00f6b023          	sd	a5,0(a3)
    80000b58:	03155513          	srli	a0,a0,0x31
    80000b5c:	00008067          	ret

0000000080000b60 <printf>:
    80000b60:	f6010113          	addi	sp,sp,-160
    80000b64:	04113c23          	sd	ra,88(sp)
    80000b68:	04813823          	sd	s0,80(sp)
    80000b6c:	04913423          	sd	s1,72(sp)
    80000b70:	05213023          	sd	s2,64(sp)
    80000b74:	03313c23          	sd	s3,56(sp)
    80000b78:	03413823          	sd	s4,48(sp)
    80000b7c:	03513423          	sd	s5,40(sp)
    80000b80:	03613023          	sd	s6,32(sp)
    80000b84:	01713c23          	sd	s7,24(sp)
    80000b88:	01813823          	sd	s8,16(sp)
    80000b8c:	06b13423          	sd	a1,104(sp)
    80000b90:	06c13823          	sd	a2,112(sp)
    80000b94:	06d13c23          	sd	a3,120(sp)
    80000b98:	08e13023          	sd	a4,128(sp)
    80000b9c:	08f13423          	sd	a5,136(sp)
    80000ba0:	09013823          	sd	a6,144(sp)
    80000ba4:	09113c23          	sd	a7,152(sp)
    80000ba8:	32050663          	beqz	a0,80000ed4 <printf+0x374>
    80000bac:	00050a93          	mv	s5,a0
    80000bb0:	00054503          	lbu	a0,0(a0)
    80000bb4:	06810793          	addi	a5,sp,104
    80000bb8:	00f13423          	sd	a5,8(sp)
    80000bbc:	30050863          	beqz	a0,80000ecc <printf+0x36c>
    80000bc0:	00000493          	li	s1,0
    80000bc4:	01c00993          	li	s3,28
    80000bc8:	00000917          	auipc	s2,0x0
    80000bcc:	4e490913          	addi	s2,s2,1252 # 800010ac <_etext+0x174>
    80000bd0:	06400a13          	li	s4,100
    80000bd4:	fff00413          	li	s0,-1
    80000bd8:	ff75079b          	addiw	a5,a0,-9
    80000bdc:	0ff7f793          	zext.b	a5,a5
    80000be0:	001a8b13          	addi	s6,s5,1
    80000be4:	00f9ec63          	bltu	s3,a5,80000bfc <printf+0x9c>
    80000be8:	00279793          	slli	a5,a5,0x2
    80000bec:	012787b3          	add	a5,a5,s2
    80000bf0:	0007a783          	lw	a5,0(a5)
    80000bf4:	012787b3          	add	a5,a5,s2
    80000bf8:	00078067          	jr	a5
    80000bfc:	c2dff0ef          	jal	ra,80000828 <putch>
    80000c00:	0014849b          	addiw	s1,s1,1
    80000c04:	000b0a93          	mv	s5,s6
    80000c08:	000ac503          	lbu	a0,0(s5)
    80000c0c:	fc0516e3          	bnez	a0,80000bd8 <printf+0x78>
    80000c10:	0004851b          	sext.w	a0,s1
    80000c14:	05813083          	ld	ra,88(sp)
    80000c18:	05013403          	ld	s0,80(sp)
    80000c1c:	04813483          	ld	s1,72(sp)
    80000c20:	04013903          	ld	s2,64(sp)
    80000c24:	03813983          	ld	s3,56(sp)
    80000c28:	03013a03          	ld	s4,48(sp)
    80000c2c:	02813a83          	ld	s5,40(sp)
    80000c30:	02013b03          	ld	s6,32(sp)
    80000c34:	01813b83          	ld	s7,24(sp)
    80000c38:	01013c03          	ld	s8,16(sp)
    80000c3c:	0a010113          	addi	sp,sp,160
    80000c40:	00008067          	ret
    80000c44:	001ac783          	lbu	a5,1(s5)
    80000c48:	11478c63          	beq	a5,s4,80000d60 <printf+0x200>
    80000c4c:	06fa6a63          	bltu	s4,a5,80000cc0 <printf+0x160>
    80000c50:	02500713          	li	a4,37
    80000c54:	1ee78863          	beq	a5,a4,80000e44 <printf+0x2e4>
    80000c58:	06300713          	li	a4,99
    80000c5c:	0ee79863          	bne	a5,a4,80000d4c <printf+0x1ec>
    80000c60:	00813783          	ld	a5,8(sp)
    80000c64:	0014849b          	addiw	s1,s1,1
    80000c68:	002a8a93          	addi	s5,s5,2
    80000c6c:	0007c503          	lbu	a0,0(a5)
    80000c70:	00878793          	addi	a5,a5,8
    80000c74:	00f13423          	sd	a5,8(sp)
    80000c78:	bb1ff0ef          	jal	ra,80000828 <putch>
    80000c7c:	f8dff06f          	j	80000c08 <printf+0xa8>
    80000c80:	02000513          	li	a0,32
    80000c84:	ba5ff0ef          	jal	ra,80000828 <putch>
    80000c88:	0014849b          	addiw	s1,s1,1
    80000c8c:	f79ff06f          	j	80000c04 <printf+0xa4>
    80000c90:	00d00513          	li	a0,13
    80000c94:	b95ff0ef          	jal	ra,80000828 <putch>
    80000c98:	0014849b          	addiw	s1,s1,1
    80000c9c:	f69ff06f          	j	80000c04 <printf+0xa4>
    80000ca0:	00a00513          	li	a0,10
    80000ca4:	b85ff0ef          	jal	ra,80000828 <putch>
    80000ca8:	0014849b          	addiw	s1,s1,1
    80000cac:	f59ff06f          	j	80000c04 <printf+0xa4>
    80000cb0:	00900513          	li	a0,9
    80000cb4:	b75ff0ef          	jal	ra,80000828 <putch>
    80000cb8:	0044849b          	addiw	s1,s1,4
    80000cbc:	f49ff06f          	j	80000c04 <printf+0xa4>
    80000cc0:	07300713          	li	a4,115
    80000cc4:	12e78a63          	beq	a5,a4,80000df8 <printf+0x298>
    80000cc8:	07800713          	li	a4,120
    80000ccc:	08e79063          	bne	a5,a4,80000d4c <printf+0x1ec>
    80000cd0:	00813783          	ld	a5,8(sp)
    80000cd4:	0007bc03          	ld	s8,0(a5)
    80000cd8:	00878793          	addi	a5,a5,8
    80000cdc:	00f13423          	sd	a5,8(sp)
    80000ce0:	160c1c63          	bnez	s8,80000e58 <printf+0x2f8>
    80000ce4:	0014849b          	addiw	s1,s1,1
    80000ce8:	00100b93          	li	s7,1
    80000cec:	00900b13          	li	s6,9
    80000cf0:	000b8793          	mv	a5,s7
    80000cf4:	fffb8b9b          	addiw	s7,s7,-1
    80000cf8:	ffe7879b          	addiw	a5,a5,-2
    80000cfc:	1c0b8263          	beqz	s7,80000ec0 <printf+0x360>
    80000d00:	00078713          	mv	a4,a5
    80000d04:	00100693          	li	a3,1
    80000d08:	fff7071b          	addiw	a4,a4,-1
    80000d0c:	00469693          	slli	a3,a3,0x4
    80000d10:	fe871ce3          	bne	a4,s0,80000d08 <printf+0x1a8>
    80000d14:	02dc56b3          	divu	a3,s8,a3
    80000d18:	00100713          	li	a4,1
    80000d1c:	fff7879b          	addiw	a5,a5,-1
    80000d20:	00471713          	slli	a4,a4,0x4
    80000d24:	fe879ce3          	bne	a5,s0,80000d1c <printf+0x1bc>
    80000d28:	02ec7c33          	remu	s8,s8,a4
    80000d2c:	0ff6f513          	zext.b	a0,a3
    80000d30:	16db6e63          	bltu	s6,a3,80000eac <printf+0x34c>
    80000d34:	0305051b          	addiw	a0,a0,48
    80000d38:	0ff57513          	zext.b	a0,a0
    80000d3c:	aedff0ef          	jal	ra,80000828 <putch>
    80000d40:	fa0b98e3          	bnez	s7,80000cf0 <printf+0x190>
    80000d44:	002a8a93          	addi	s5,s5,2
    80000d48:	ec1ff06f          	j	80000c08 <printf+0xa8>
    80000d4c:	02000513          	li	a0,32
    80000d50:	ad9ff0ef          	jal	ra,80000828 <putch>
    80000d54:	0014849b          	addiw	s1,s1,1
    80000d58:	000b0a93          	mv	s5,s6
    80000d5c:	eadff06f          	j	80000c08 <printf+0xa8>
    80000d60:	00813783          	ld	a5,8(sp)
    80000d64:	0007ab03          	lw	s6,0(a5)
    80000d68:	00878793          	addi	a5,a5,8
    80000d6c:	00f13423          	sd	a5,8(sp)
    80000d70:	100b4263          	bltz	s6,80000e74 <printf+0x314>
    80000d74:	160b1463          	bnez	s6,80000edc <printf+0x37c>
    80000d78:	0014849b          	addiw	s1,s1,1
    80000d7c:	00100b93          	li	s7,1
    80000d80:	ffeb8b9b          	addiw	s7,s7,-2
    80000d84:	000b869b          	sext.w	a3,s7
    80000d88:	048b8e63          	beq	s7,s0,80000de4 <printf+0x284>
    80000d8c:	00068713          	mv	a4,a3
    80000d90:	00100793          	li	a5,1
    80000d94:	00279613          	slli	a2,a5,0x2
    80000d98:	00f607b3          	add	a5,a2,a5
    80000d9c:	fff7071b          	addiw	a4,a4,-1
    80000da0:	00179793          	slli	a5,a5,0x1
    80000da4:	fe8718e3          	bne	a4,s0,80000d94 <printf+0x234>
    80000da8:	02fb57b3          	divu	a5,s6,a5
    80000dac:	00100713          	li	a4,1
    80000db0:	00271613          	slli	a2,a4,0x2
    80000db4:	00e60733          	add	a4,a2,a4
    80000db8:	fff6869b          	addiw	a3,a3,-1
    80000dbc:	00171713          	slli	a4,a4,0x1
    80000dc0:	fe8698e3          	bne	a3,s0,80000db0 <printf+0x250>
    80000dc4:	0307879b          	addiw	a5,a5,48
    80000dc8:	0ff7f513          	zext.b	a0,a5
    80000dcc:	fffb8b9b          	addiw	s7,s7,-1
    80000dd0:	02eb7b33          	remu	s6,s6,a4
    80000dd4:	a55ff0ef          	jal	ra,80000828 <putch>
    80000dd8:	000b869b          	sext.w	a3,s7
    80000ddc:	000b0b1b          	sext.w	s6,s6
    80000de0:	fa8b96e3          	bne	s7,s0,80000d8c <printf+0x22c>
    80000de4:	030b051b          	addiw	a0,s6,48
    80000de8:	0ff57513          	zext.b	a0,a0
    80000dec:	a3dff0ef          	jal	ra,80000828 <putch>
    80000df0:	002a8a93          	addi	s5,s5,2
    80000df4:	e15ff06f          	j	80000c08 <printf+0xa8>
    80000df8:	00813783          	ld	a5,8(sp)
    80000dfc:	0007bb03          	ld	s6,0(a5)
    80000e00:	00878793          	addi	a5,a5,8
    80000e04:	00f13423          	sd	a5,8(sp)
    80000e08:	000b0513          	mv	a0,s6
    80000e0c:	0d8000ef          	jal	ra,80000ee4 <strlen>
    80000e10:	00050793          	mv	a5,a0
    80000e14:	000b4503          	lbu	a0,0(s6)
    80000e18:	009784bb          	addw	s1,a5,s1
    80000e1c:	f20504e3          	beqz	a0,80000d44 <printf+0x1e4>
    80000e20:	001b0b13          	addi	s6,s6,1
    80000e24:	a05ff0ef          	jal	ra,80000828 <putch>
    80000e28:	000b4503          	lbu	a0,0(s6)
    80000e2c:	f0050ce3          	beqz	a0,80000d44 <printf+0x1e4>
    80000e30:	001b0b13          	addi	s6,s6,1
    80000e34:	9f5ff0ef          	jal	ra,80000828 <putch>
    80000e38:	000b4503          	lbu	a0,0(s6)
    80000e3c:	fe0512e3          	bnez	a0,80000e20 <printf+0x2c0>
    80000e40:	f05ff06f          	j	80000d44 <printf+0x1e4>
    80000e44:	02500513          	li	a0,37
    80000e48:	9e1ff0ef          	jal	ra,80000828 <putch>
    80000e4c:	0014849b          	addiw	s1,s1,1
    80000e50:	002a8a93          	addi	s5,s5,2
    80000e54:	db5ff06f          	j	80000c08 <printf+0xa8>
    80000e58:	000c0793          	mv	a5,s8
    80000e5c:	00000b93          	li	s7,0
    80000e60:	0047d793          	srli	a5,a5,0x4
    80000e64:	001b8b9b          	addiw	s7,s7,1
    80000e68:	fe079ce3          	bnez	a5,80000e60 <printf+0x300>
    80000e6c:	009b84bb          	addw	s1,s7,s1
    80000e70:	e7dff06f          	j	80000cec <printf+0x18c>
    80000e74:	02d00513          	li	a0,45
    80000e78:	41600b3b          	negw	s6,s6
    80000e7c:	9adff0ef          	jal	ra,80000828 <putch>
    80000e80:	0014849b          	addiw	s1,s1,1
    80000e84:	000b0793          	mv	a5,s6
    80000e88:	00000b93          	li	s7,0
    80000e8c:	00a00613          	li	a2,10
    80000e90:	00900693          	li	a3,9
    80000e94:	00078713          	mv	a4,a5
    80000e98:	001b8b9b          	addiw	s7,s7,1
    80000e9c:	02c7d7b3          	divu	a5,a5,a2
    80000ea0:	fee6eae3          	bltu	a3,a4,80000e94 <printf+0x334>
    80000ea4:	009b84bb          	addw	s1,s7,s1
    80000ea8:	ed9ff06f          	j	80000d80 <printf+0x220>
    80000eac:	0375051b          	addiw	a0,a0,55
    80000eb0:	0ff57513          	zext.b	a0,a0
    80000eb4:	975ff0ef          	jal	ra,80000828 <putch>
    80000eb8:	e20b9ce3          	bnez	s7,80000cf0 <printf+0x190>
    80000ebc:	e89ff06f          	j	80000d44 <printf+0x1e4>
    80000ec0:	000c0693          	mv	a3,s8
    80000ec4:	00000c13          	li	s8,0
    80000ec8:	e65ff06f          	j	80000d2c <printf+0x1cc>
    80000ecc:	00000513          	li	a0,0
    80000ed0:	d45ff06f          	j	80000c14 <printf+0xb4>
    80000ed4:	fff00513          	li	a0,-1
    80000ed8:	d3dff06f          	j	80000c14 <printf+0xb4>
    80000edc:	000b0793          	mv	a5,s6
    80000ee0:	fa9ff06f          	j	80000e88 <printf+0x328>

0000000080000ee4 <strlen>:
    80000ee4:	02050663          	beqz	a0,80000f10 <strlen+0x2c>
    80000ee8:	00054783          	lbu	a5,0(a0)
    80000eec:	00050713          	mv	a4,a0
    80000ef0:	00000513          	li	a0,0
    80000ef4:	00078c63          	beqz	a5,80000f0c <strlen+0x28>
    80000ef8:	00150513          	addi	a0,a0,1
    80000efc:	00a707b3          	add	a5,a4,a0
    80000f00:	0007c783          	lbu	a5,0(a5)
    80000f04:	fe079ae3          	bnez	a5,80000ef8 <strlen+0x14>
    80000f08:	00008067          	ret
    80000f0c:	00008067          	ret
    80000f10:	ff010113          	addi	sp,sp,-16
    80000f14:	00800613          	li	a2,8
    80000f18:	00000597          	auipc	a1,0x0
    80000f1c:	20858593          	addi	a1,a1,520 # 80001120 <_etext+0x1e8>
    80000f20:	00000517          	auipc	a0,0x0
    80000f24:	24050513          	addi	a0,a0,576 # 80001160 <_etext+0x228>
    80000f28:	00113423          	sd	ra,8(sp)
    80000f2c:	c35ff0ef          	jal	ra,80000b60 <printf>
    80000f30:	00100513          	li	a0,1
    80000f34:	905ff0ef          	jal	ra,80000838 <halt>
