
/home/xg/ysyx-workbench/am-kernels/tests/kilb-tests/build/-riscv64-nemu.elf：     文件格式 elf64-littleriscv


Disassembly of section .text:

0000000080000000 <_start>:
    80000000:	00000413          	li	s0,0
    80000004:	00009117          	auipc	sp,0x9
    80000008:	ffc10113          	addi	sp,sp,-4 # 80009000 <_end>
    8000000c:	060000ef          	jal	ra,8000006c <_trm_init>

0000000080000010 <main>:
    80000010:	0001e5b7          	lui	a1,0x1e
    80000014:	ff010113          	addi	sp,sp,-16
    80000018:	24058593          	addi	a1,a1,576 # 1e240 <_entry_offset+0x1e240>
    8000001c:	00000517          	auipc	a0,0x0
    80000020:	44c50513          	addi	a0,a0,1100 # 80000468 <_etext+0x4>
    80000024:	00113423          	sd	ra,8(sp)
    80000028:	064000ef          	jal	ra,8000008c <printf>
    8000002c:	00000597          	auipc	a1,0x0
    80000030:	44458593          	addi	a1,a1,1092 # 80000470 <_etext+0xc>
    80000034:	00000517          	auipc	a0,0x0
    80000038:	44c50513          	addi	a0,a0,1100 # 80000480 <_etext+0x1c>
    8000003c:	050000ef          	jal	ra,8000008c <printf>
    80000040:	00813083          	ld	ra,8(sp)
    80000044:	00000513          	li	a0,0
    80000048:	01010113          	addi	sp,sp,16
    8000004c:	00008067          	ret

0000000080000050 <putch>:
    80000050:	00500793          	li	a5,5
    80000054:	01d79793          	slli	a5,a5,0x1d
    80000058:	3ea78c23          	sb	a0,1016(a5)
    8000005c:	00008067          	ret

0000000080000060 <halt>:
    80000060:	00050513          	mv	a0,a0
    80000064:	00100073          	ebreak
    80000068:	0000006f          	j	80000068 <halt+0x8>

000000008000006c <_trm_init>:
    8000006c:	ff010113          	addi	sp,sp,-16
    80000070:	00000517          	auipc	a0,0x0
    80000074:	4e850513          	addi	a0,a0,1256 # 80000558 <mainargs>
    80000078:	00113423          	sd	ra,8(sp)
    8000007c:	f95ff0ef          	jal	ra,80000010 <main>
    80000080:	00050513          	mv	a0,a0
    80000084:	00100073          	ebreak
    80000088:	0000006f          	j	80000088 <_trm_init+0x1c>

000000008000008c <printf>:
    8000008c:	f6010113          	addi	sp,sp,-160
    80000090:	04113c23          	sd	ra,88(sp)
    80000094:	04813823          	sd	s0,80(sp)
    80000098:	04913423          	sd	s1,72(sp)
    8000009c:	05213023          	sd	s2,64(sp)
    800000a0:	03313c23          	sd	s3,56(sp)
    800000a4:	03413823          	sd	s4,48(sp)
    800000a8:	03513423          	sd	s5,40(sp)
    800000ac:	03613023          	sd	s6,32(sp)
    800000b0:	01713c23          	sd	s7,24(sp)
    800000b4:	01813823          	sd	s8,16(sp)
    800000b8:	06b13423          	sd	a1,104(sp)
    800000bc:	06c13823          	sd	a2,112(sp)
    800000c0:	06d13c23          	sd	a3,120(sp)
    800000c4:	08e13023          	sd	a4,128(sp)
    800000c8:	08f13423          	sd	a5,136(sp)
    800000cc:	09013823          	sd	a6,144(sp)
    800000d0:	09113c23          	sd	a7,152(sp)
    800000d4:	32050663          	beqz	a0,80000400 <printf+0x374>
    800000d8:	00050a93          	mv	s5,a0
    800000dc:	00054503          	lbu	a0,0(a0)
    800000e0:	06810793          	addi	a5,sp,104
    800000e4:	00f13423          	sd	a5,8(sp)
    800000e8:	30050863          	beqz	a0,800003f8 <printf+0x36c>
    800000ec:	00000493          	li	s1,0
    800000f0:	01c00993          	li	s3,28
    800000f4:	00000917          	auipc	s2,0x0
    800000f8:	39090913          	addi	s2,s2,912 # 80000484 <_etext+0x20>
    800000fc:	06400a13          	li	s4,100
    80000100:	fff00413          	li	s0,-1
    80000104:	ff75079b          	addiw	a5,a0,-9
    80000108:	0ff7f793          	zext.b	a5,a5
    8000010c:	001a8b13          	addi	s6,s5,1
    80000110:	00f9ec63          	bltu	s3,a5,80000128 <printf+0x9c>
    80000114:	00279793          	slli	a5,a5,0x2
    80000118:	012787b3          	add	a5,a5,s2
    8000011c:	0007a783          	lw	a5,0(a5)
    80000120:	012787b3          	add	a5,a5,s2
    80000124:	00078067          	jr	a5
    80000128:	f29ff0ef          	jal	ra,80000050 <putch>
    8000012c:	0014849b          	addiw	s1,s1,1
    80000130:	000b0a93          	mv	s5,s6
    80000134:	000ac503          	lbu	a0,0(s5)
    80000138:	fc0516e3          	bnez	a0,80000104 <printf+0x78>
    8000013c:	0004851b          	sext.w	a0,s1
    80000140:	05813083          	ld	ra,88(sp)
    80000144:	05013403          	ld	s0,80(sp)
    80000148:	04813483          	ld	s1,72(sp)
    8000014c:	04013903          	ld	s2,64(sp)
    80000150:	03813983          	ld	s3,56(sp)
    80000154:	03013a03          	ld	s4,48(sp)
    80000158:	02813a83          	ld	s5,40(sp)
    8000015c:	02013b03          	ld	s6,32(sp)
    80000160:	01813b83          	ld	s7,24(sp)
    80000164:	01013c03          	ld	s8,16(sp)
    80000168:	0a010113          	addi	sp,sp,160
    8000016c:	00008067          	ret
    80000170:	001ac783          	lbu	a5,1(s5)
    80000174:	11478c63          	beq	a5,s4,8000028c <printf+0x200>
    80000178:	06fa6a63          	bltu	s4,a5,800001ec <printf+0x160>
    8000017c:	02500713          	li	a4,37
    80000180:	1ee78863          	beq	a5,a4,80000370 <printf+0x2e4>
    80000184:	06300713          	li	a4,99
    80000188:	0ee79863          	bne	a5,a4,80000278 <printf+0x1ec>
    8000018c:	00813783          	ld	a5,8(sp)
    80000190:	0014849b          	addiw	s1,s1,1
    80000194:	002a8a93          	addi	s5,s5,2
    80000198:	0007c503          	lbu	a0,0(a5)
    8000019c:	00878793          	addi	a5,a5,8
    800001a0:	00f13423          	sd	a5,8(sp)
    800001a4:	eadff0ef          	jal	ra,80000050 <putch>
    800001a8:	f8dff06f          	j	80000134 <printf+0xa8>
    800001ac:	02000513          	li	a0,32
    800001b0:	ea1ff0ef          	jal	ra,80000050 <putch>
    800001b4:	0014849b          	addiw	s1,s1,1
    800001b8:	f79ff06f          	j	80000130 <printf+0xa4>
    800001bc:	00d00513          	li	a0,13
    800001c0:	e91ff0ef          	jal	ra,80000050 <putch>
    800001c4:	0014849b          	addiw	s1,s1,1
    800001c8:	f69ff06f          	j	80000130 <printf+0xa4>
    800001cc:	00a00513          	li	a0,10
    800001d0:	e81ff0ef          	jal	ra,80000050 <putch>
    800001d4:	0014849b          	addiw	s1,s1,1
    800001d8:	f59ff06f          	j	80000130 <printf+0xa4>
    800001dc:	00900513          	li	a0,9
    800001e0:	e71ff0ef          	jal	ra,80000050 <putch>
    800001e4:	0044849b          	addiw	s1,s1,4
    800001e8:	f49ff06f          	j	80000130 <printf+0xa4>
    800001ec:	07300713          	li	a4,115
    800001f0:	12e78a63          	beq	a5,a4,80000324 <printf+0x298>
    800001f4:	07800713          	li	a4,120
    800001f8:	08e79063          	bne	a5,a4,80000278 <printf+0x1ec>
    800001fc:	00813783          	ld	a5,8(sp)
    80000200:	0007bc03          	ld	s8,0(a5)
    80000204:	00878793          	addi	a5,a5,8
    80000208:	00f13423          	sd	a5,8(sp)
    8000020c:	160c1c63          	bnez	s8,80000384 <printf+0x2f8>
    80000210:	0014849b          	addiw	s1,s1,1
    80000214:	00100b93          	li	s7,1
    80000218:	00900b13          	li	s6,9
    8000021c:	000b8793          	mv	a5,s7
    80000220:	fffb8b9b          	addiw	s7,s7,-1
    80000224:	ffe7879b          	addiw	a5,a5,-2
    80000228:	1c0b8263          	beqz	s7,800003ec <printf+0x360>
    8000022c:	00078713          	mv	a4,a5
    80000230:	00100693          	li	a3,1
    80000234:	fff7071b          	addiw	a4,a4,-1
    80000238:	00469693          	slli	a3,a3,0x4
    8000023c:	fe871ce3          	bne	a4,s0,80000234 <printf+0x1a8>
    80000240:	02dc56b3          	divu	a3,s8,a3
    80000244:	00100713          	li	a4,1
    80000248:	fff7879b          	addiw	a5,a5,-1
    8000024c:	00471713          	slli	a4,a4,0x4
    80000250:	fe879ce3          	bne	a5,s0,80000248 <printf+0x1bc>
    80000254:	02ec7c33          	remu	s8,s8,a4
    80000258:	0ff6f513          	zext.b	a0,a3
    8000025c:	16db6e63          	bltu	s6,a3,800003d8 <printf+0x34c>
    80000260:	0305051b          	addiw	a0,a0,48
    80000264:	0ff57513          	zext.b	a0,a0
    80000268:	de9ff0ef          	jal	ra,80000050 <putch>
    8000026c:	fa0b98e3          	bnez	s7,8000021c <printf+0x190>
    80000270:	002a8a93          	addi	s5,s5,2
    80000274:	ec1ff06f          	j	80000134 <printf+0xa8>
    80000278:	02000513          	li	a0,32
    8000027c:	dd5ff0ef          	jal	ra,80000050 <putch>
    80000280:	0014849b          	addiw	s1,s1,1
    80000284:	000b0a93          	mv	s5,s6
    80000288:	eadff06f          	j	80000134 <printf+0xa8>
    8000028c:	00813783          	ld	a5,8(sp)
    80000290:	0007ab03          	lw	s6,0(a5)
    80000294:	00878793          	addi	a5,a5,8
    80000298:	00f13423          	sd	a5,8(sp)
    8000029c:	100b4263          	bltz	s6,800003a0 <printf+0x314>
    800002a0:	160b1463          	bnez	s6,80000408 <printf+0x37c>
    800002a4:	0014849b          	addiw	s1,s1,1
    800002a8:	00100b93          	li	s7,1
    800002ac:	ffeb8b9b          	addiw	s7,s7,-2
    800002b0:	000b869b          	sext.w	a3,s7
    800002b4:	048b8e63          	beq	s7,s0,80000310 <printf+0x284>
    800002b8:	00068713          	mv	a4,a3
    800002bc:	00100793          	li	a5,1
    800002c0:	00279613          	slli	a2,a5,0x2
    800002c4:	00f607b3          	add	a5,a2,a5
    800002c8:	fff7071b          	addiw	a4,a4,-1
    800002cc:	00179793          	slli	a5,a5,0x1
    800002d0:	fe8718e3          	bne	a4,s0,800002c0 <printf+0x234>
    800002d4:	02fb57b3          	divu	a5,s6,a5
    800002d8:	00100713          	li	a4,1
    800002dc:	00271613          	slli	a2,a4,0x2
    800002e0:	00e60733          	add	a4,a2,a4
    800002e4:	fff6869b          	addiw	a3,a3,-1
    800002e8:	00171713          	slli	a4,a4,0x1
    800002ec:	fe8698e3          	bne	a3,s0,800002dc <printf+0x250>
    800002f0:	0307879b          	addiw	a5,a5,48
    800002f4:	0ff7f513          	zext.b	a0,a5
    800002f8:	fffb8b9b          	addiw	s7,s7,-1
    800002fc:	02eb7b33          	remu	s6,s6,a4
    80000300:	d51ff0ef          	jal	ra,80000050 <putch>
    80000304:	000b869b          	sext.w	a3,s7
    80000308:	000b0b1b          	sext.w	s6,s6
    8000030c:	fa8b96e3          	bne	s7,s0,800002b8 <printf+0x22c>
    80000310:	030b051b          	addiw	a0,s6,48
    80000314:	0ff57513          	zext.b	a0,a0
    80000318:	d39ff0ef          	jal	ra,80000050 <putch>
    8000031c:	002a8a93          	addi	s5,s5,2
    80000320:	e15ff06f          	j	80000134 <printf+0xa8>
    80000324:	00813783          	ld	a5,8(sp)
    80000328:	0007bb03          	ld	s6,0(a5)
    8000032c:	00878793          	addi	a5,a5,8
    80000330:	00f13423          	sd	a5,8(sp)
    80000334:	000b0513          	mv	a0,s6
    80000338:	0d8000ef          	jal	ra,80000410 <strlen>
    8000033c:	00050793          	mv	a5,a0
    80000340:	000b4503          	lbu	a0,0(s6)
    80000344:	009784bb          	addw	s1,a5,s1
    80000348:	f20504e3          	beqz	a0,80000270 <printf+0x1e4>
    8000034c:	001b0b13          	addi	s6,s6,1
    80000350:	d01ff0ef          	jal	ra,80000050 <putch>
    80000354:	000b4503          	lbu	a0,0(s6)
    80000358:	f0050ce3          	beqz	a0,80000270 <printf+0x1e4>
    8000035c:	001b0b13          	addi	s6,s6,1
    80000360:	cf1ff0ef          	jal	ra,80000050 <putch>
    80000364:	000b4503          	lbu	a0,0(s6)
    80000368:	fe0512e3          	bnez	a0,8000034c <printf+0x2c0>
    8000036c:	f05ff06f          	j	80000270 <printf+0x1e4>
    80000370:	02500513          	li	a0,37
    80000374:	cddff0ef          	jal	ra,80000050 <putch>
    80000378:	0014849b          	addiw	s1,s1,1
    8000037c:	002a8a93          	addi	s5,s5,2
    80000380:	db5ff06f          	j	80000134 <printf+0xa8>
    80000384:	000c0793          	mv	a5,s8
    80000388:	00000b93          	li	s7,0
    8000038c:	0047d793          	srli	a5,a5,0x4
    80000390:	001b8b9b          	addiw	s7,s7,1
    80000394:	fe079ce3          	bnez	a5,8000038c <printf+0x300>
    80000398:	009b84bb          	addw	s1,s7,s1
    8000039c:	e7dff06f          	j	80000218 <printf+0x18c>
    800003a0:	02d00513          	li	a0,45
    800003a4:	41600b3b          	negw	s6,s6
    800003a8:	ca9ff0ef          	jal	ra,80000050 <putch>
    800003ac:	0014849b          	addiw	s1,s1,1
    800003b0:	000b0793          	mv	a5,s6
    800003b4:	00000b93          	li	s7,0
    800003b8:	00a00613          	li	a2,10
    800003bc:	00900693          	li	a3,9
    800003c0:	00078713          	mv	a4,a5
    800003c4:	001b8b9b          	addiw	s7,s7,1
    800003c8:	02c7d7b3          	divu	a5,a5,a2
    800003cc:	fee6eae3          	bltu	a3,a4,800003c0 <printf+0x334>
    800003d0:	009b84bb          	addw	s1,s7,s1
    800003d4:	ed9ff06f          	j	800002ac <printf+0x220>
    800003d8:	0375051b          	addiw	a0,a0,55
    800003dc:	0ff57513          	zext.b	a0,a0
    800003e0:	c71ff0ef          	jal	ra,80000050 <putch>
    800003e4:	e20b9ce3          	bnez	s7,8000021c <printf+0x190>
    800003e8:	e89ff06f          	j	80000270 <printf+0x1e4>
    800003ec:	000c0693          	mv	a3,s8
    800003f0:	00000c13          	li	s8,0
    800003f4:	e65ff06f          	j	80000258 <printf+0x1cc>
    800003f8:	00000513          	li	a0,0
    800003fc:	d45ff06f          	j	80000140 <printf+0xb4>
    80000400:	fff00513          	li	a0,-1
    80000404:	d3dff06f          	j	80000140 <printf+0xb4>
    80000408:	000b0793          	mv	a5,s6
    8000040c:	fa9ff06f          	j	800003b4 <printf+0x328>

0000000080000410 <strlen>:
    80000410:	02050663          	beqz	a0,8000043c <strlen+0x2c>
    80000414:	00054783          	lbu	a5,0(a0)
    80000418:	00050713          	mv	a4,a0
    8000041c:	00000513          	li	a0,0
    80000420:	00078c63          	beqz	a5,80000438 <strlen+0x28>
    80000424:	00150513          	addi	a0,a0,1
    80000428:	00a707b3          	add	a5,a4,a0
    8000042c:	0007c783          	lbu	a5,0(a5)
    80000430:	fe079ae3          	bnez	a5,80000424 <strlen+0x14>
    80000434:	00008067          	ret
    80000438:	00008067          	ret
    8000043c:	ff010113          	addi	sp,sp,-16
    80000440:	00800613          	li	a2,8
    80000444:	00000597          	auipc	a1,0x0
    80000448:	0b458593          	addi	a1,a1,180 # 800004f8 <_etext+0x94>
    8000044c:	00000517          	auipc	a0,0x0
    80000450:	0ec50513          	addi	a0,a0,236 # 80000538 <_etext+0xd4>
    80000454:	00113423          	sd	ra,8(sp)
    80000458:	c35ff0ef          	jal	ra,8000008c <printf>
    8000045c:	00100513          	li	a0,1
    80000460:	c01ff0ef          	jal	ra,80000060 <halt>
