
/home/xg/ysyx-workbench/am-kernels/tests/kilb-tests/build/memsettest-riscv64-nemu.elf：     文件格式 elf64-littleriscv


Disassembly of section .text:

0000000080000000 <_start>:
    80000000:	00000413          	li	s0,0
    80000004:	00009117          	auipc	sp,0x9
    80000008:	ffc10113          	addi	sp,sp,-4 # 80009000 <_end>
    8000000c:	1e4000ef          	jal	ra,800001f0 <_trm_init>

0000000080000010 <_Z11test_memsetv>:
    80000010:	f9010113          	addi	sp,sp,-112
    80000014:	05413023          	sd	s4,64(sp)
    80000018:	01a13823          	sd	s10,16(sp)
    8000001c:	00100a13          	li	s4,1
    80000020:	00001d17          	auipc	s10,0x1
    80000024:	8e0d0d13          	addi	s10,s10,-1824 # 80000900 <data>
    80000028:	04913c23          	sd	s1,88(sp)
    8000002c:	05213823          	sd	s2,80(sp)
    80000030:	03513c23          	sd	s5,56(sp)
    80000034:	03813023          	sd	s8,32(sp)
    80000038:	01913c23          	sd	s9,24(sp)
    8000003c:	06113423          	sd	ra,104(sp)
    80000040:	06813023          	sd	s0,96(sp)
    80000044:	05313423          	sd	s3,72(sp)
    80000048:	03613823          	sd	s6,48(sp)
    8000004c:	03713423          	sd	s7,40(sp)
    80000050:	01b13423          	sd	s11,8(sp)
    80000054:	000d0c93          	mv	s9,s10
    80000058:	00000913          	li	s2,0
    8000005c:	00001a97          	auipc	s5,0x1
    80000060:	8c4a8a93          	addi	s5,s5,-1852 # 80000920 <data+0x20>
    80000064:	41aa0a3b          	subw	s4,s4,s10
    80000068:	02100c13          	li	s8,33
    8000006c:	01f00493          	li	s1,31
    80000070:	00090b9b          	sext.w	s7,s2
    80000074:	0019091b          	addiw	s2,s2,1
    80000078:	00090993          	mv	s3,s2
    8000007c:	00100d93          	li	s11,1
    80000080:	001c8413          	addi	s0,s9,1
    80000084:	000d0793          	mv	a5,s10
    80000088:	00fa073b          	addw	a4,s4,a5
    8000008c:	00e78023          	sb	a4,0(a5)
    80000090:	00178793          	addi	a5,a5,1
    80000094:	fefa9ae3          	bne	s5,a5,80000088 <_Z11test_memsetv+0x78>
    80000098:	01798b3b          	addw	s6,s3,s7
    8000009c:	401b5b1b          	sraiw	s6,s6,0x1
    800000a0:	000d8613          	mv	a2,s11
    800000a4:	000b0593          	mv	a1,s6
    800000a8:	000c8513          	mv	a0,s9
    800000ac:	678000ef          	jal	ra,80000724 <memset>
    800000b0:	000d0713          	mv	a4,s10
    800000b4:	00000793          	li	a5,0
    800000b8:	03778a63          	beq	a5,s7,800000ec <_Z11test_memsetv+0xdc>
    800000bc:	00074683          	lbu	a3,0(a4)
    800000c0:	0017879b          	addiw	a5,a5,1
    800000c4:	00170713          	addi	a4,a4,1
    800000c8:	fef688e3          	beq	a3,a5,800000b8 <_Z11test_memsetv+0xa8>
    800000cc:	01900613          	li	a2,25
    800000d0:	00000597          	auipc	a1,0x0
    800000d4:	6a858593          	addi	a1,a1,1704 # 80000778 <_etext+0x4>
    800000d8:	00000517          	auipc	a0,0x0
    800000dc:	6e850513          	addi	a0,a0,1768 # 800007c0 <_etext+0x4c>
    800000e0:	130000ef          	jal	ra,80000210 <printf>
    800000e4:	00100513          	li	a0,1
    800000e8:	0fc000ef          	jal	ra,800001e4 <halt>
    800000ec:	0b3bd263          	bge	s7,s3,80000190 <_Z11test_memsetv+0x180>
    800000f0:	fffd869b          	addiw	a3,s11,-1
    800000f4:	02069693          	slli	a3,a3,0x20
    800000f8:	0206d693          	srli	a3,a3,0x20
    800000fc:	00d406b3          	add	a3,s0,a3
    80000100:	000c8793          	mv	a5,s9
    80000104:	0007c703          	lbu	a4,0(a5)
    80000108:	09671a63          	bne	a4,s6,8000019c <_Z11test_memsetv+0x18c>
    8000010c:	00178793          	addi	a5,a5,1
    80000110:	fed79ae3          	bne	a5,a3,80000104 <_Z11test_memsetv+0xf4>
    80000114:	0019861b          	addiw	a2,s3,1
    80000118:	00060793          	mv	a5,a2
    8000011c:	0134ce63          	blt	s1,s3,80000138 <_Z11test_memsetv+0x128>
    80000120:	019d8733          	add	a4,s11,s9
    80000124:	00074683          	lbu	a3,0(a4)
    80000128:	faf692e3          	bne	a3,a5,800000cc <_Z11test_memsetv+0xbc>
    8000012c:	0017879b          	addiw	a5,a5,1
    80000130:	00170713          	addi	a4,a4,1
    80000134:	ff8798e3          	bne	a5,s8,80000124 <_Z11test_memsetv+0x114>
    80000138:	001d8d93          	addi	s11,s11,1
    8000013c:	01860663          	beq	a2,s8,80000148 <_Z11test_memsetv+0x138>
    80000140:	00060993          	mv	s3,a2
    80000144:	f41ff06f          	j	80000084 <_Z11test_memsetv+0x74>
    80000148:	02000793          	li	a5,32
    8000014c:	001c8c93          	addi	s9,s9,1
    80000150:	f2f910e3          	bne	s2,a5,80000070 <_Z11test_memsetv+0x60>
    80000154:	06813083          	ld	ra,104(sp)
    80000158:	06013403          	ld	s0,96(sp)
    8000015c:	05813483          	ld	s1,88(sp)
    80000160:	05013903          	ld	s2,80(sp)
    80000164:	04813983          	ld	s3,72(sp)
    80000168:	04013a03          	ld	s4,64(sp)
    8000016c:	03813a83          	ld	s5,56(sp)
    80000170:	03013b03          	ld	s6,48(sp)
    80000174:	02813b83          	ld	s7,40(sp)
    80000178:	02013c03          	ld	s8,32(sp)
    8000017c:	01813c83          	ld	s9,24(sp)
    80000180:	01013d03          	ld	s10,16(sp)
    80000184:	00813d83          	ld	s11,8(sp)
    80000188:	07010113          	addi	sp,sp,112
    8000018c:	00008067          	ret
    80000190:	0019861b          	addiw	a2,s3,1
    80000194:	00060793          	mv	a5,a2
    80000198:	f89ff06f          	j	80000120 <_Z11test_memsetv+0x110>
    8000019c:	01200613          	li	a2,18
    800001a0:	f31ff06f          	j	800000d0 <_Z11test_memsetv+0xc0>

00000000800001a4 <main>:
    800001a4:	0001e5b7          	lui	a1,0x1e
    800001a8:	ff010113          	addi	sp,sp,-16
    800001ac:	24058593          	addi	a1,a1,576 # 1e240 <_entry_offset+0x1e240>
    800001b0:	00000517          	auipc	a0,0x0
    800001b4:	63050513          	addi	a0,a0,1584 # 800007e0 <_etext+0x6c>
    800001b8:	00113423          	sd	ra,8(sp)
    800001bc:	054000ef          	jal	ra,80000210 <printf>
    800001c0:	e51ff0ef          	jal	ra,80000010 <_Z11test_memsetv>
    800001c4:	00813083          	ld	ra,8(sp)
    800001c8:	00000513          	li	a0,0
    800001cc:	01010113          	addi	sp,sp,16
    800001d0:	00008067          	ret

00000000800001d4 <putch>:
    800001d4:	00500793          	li	a5,5
    800001d8:	01d79793          	slli	a5,a5,0x1d
    800001dc:	3ea78c23          	sb	a0,1016(a5)
    800001e0:	00008067          	ret

00000000800001e4 <halt>:
    800001e4:	00050513          	mv	a0,a0
    800001e8:	00100073          	ebreak
    800001ec:	0000006f          	j	800001ec <halt+0x8>

00000000800001f0 <_trm_init>:
    800001f0:	ff010113          	addi	sp,sp,-16
    800001f4:	00000517          	auipc	a0,0x0
    800001f8:	70450513          	addi	a0,a0,1796 # 800008f8 <mainargs>
    800001fc:	00113423          	sd	ra,8(sp)
    80000200:	fa5ff0ef          	jal	ra,800001a4 <main>
    80000204:	00050513          	mv	a0,a0
    80000208:	00100073          	ebreak
    8000020c:	0000006f          	j	8000020c <_trm_init+0x1c>

0000000080000210 <printf>:
    80000210:	f5010113          	addi	sp,sp,-176
    80000214:	06113423          	sd	ra,104(sp)
    80000218:	06813023          	sd	s0,96(sp)
    8000021c:	04913c23          	sd	s1,88(sp)
    80000220:	05213823          	sd	s2,80(sp)
    80000224:	05313423          	sd	s3,72(sp)
    80000228:	05413023          	sd	s4,64(sp)
    8000022c:	03513c23          	sd	s5,56(sp)
    80000230:	03613823          	sd	s6,48(sp)
    80000234:	03713423          	sd	s7,40(sp)
    80000238:	03813023          	sd	s8,32(sp)
    8000023c:	01913c23          	sd	s9,24(sp)
    80000240:	06b13c23          	sd	a1,120(sp)
    80000244:	08c13023          	sd	a2,128(sp)
    80000248:	08d13423          	sd	a3,136(sp)
    8000024c:	08e13823          	sd	a4,144(sp)
    80000250:	08f13c23          	sd	a5,152(sp)
    80000254:	0b013023          	sd	a6,160(sp)
    80000258:	0b113423          	sd	a7,168(sp)
    8000025c:	44050e63          	beqz	a0,800006b8 <printf+0x4a8>
    80000260:	00050b13          	mv	s6,a0
    80000264:	00054503          	lbu	a0,0(a0)
    80000268:	07810793          	addi	a5,sp,120
    8000026c:	00f13423          	sd	a5,8(sp)
    80000270:	3a050263          	beqz	a0,80000614 <printf+0x404>
    80000274:	00000493          	li	s1,0
    80000278:	01c00993          	li	s3,28
    8000027c:	00000917          	auipc	s2,0x0
    80000280:	56890913          	addi	s2,s2,1384 # 800007e4 <_etext+0x70>
    80000284:	02500a93          	li	s5,37
    80000288:	00000a17          	auipc	s4,0x0
    8000028c:	5d0a0a13          	addi	s4,s4,1488 # 80000858 <_etext+0xe4>
    80000290:	fff00413          	li	s0,-1
    80000294:	ff75079b          	addiw	a5,a0,-9
    80000298:	0ff7f793          	zext.b	a5,a5
    8000029c:	001b0b93          	addi	s7,s6,1
    800002a0:	00f9ec63          	bltu	s3,a5,800002b8 <printf+0xa8>
    800002a4:	00279793          	slli	a5,a5,0x2
    800002a8:	012787b3          	add	a5,a5,s2
    800002ac:	0007a783          	lw	a5,0(a5)
    800002b0:	012787b3          	add	a5,a5,s2
    800002b4:	00078067          	jr	a5
    800002b8:	f1dff0ef          	jal	ra,800001d4 <putch>
    800002bc:	0014849b          	addiw	s1,s1,1
    800002c0:	000b8b13          	mv	s6,s7
    800002c4:	000b4503          	lbu	a0,0(s6)
    800002c8:	fc0516e3          	bnez	a0,80000294 <printf+0x84>
    800002cc:	0004851b          	sext.w	a0,s1
    800002d0:	06813083          	ld	ra,104(sp)
    800002d4:	06013403          	ld	s0,96(sp)
    800002d8:	05813483          	ld	s1,88(sp)
    800002dc:	05013903          	ld	s2,80(sp)
    800002e0:	04813983          	ld	s3,72(sp)
    800002e4:	04013a03          	ld	s4,64(sp)
    800002e8:	03813a83          	ld	s5,56(sp)
    800002ec:	03013b03          	ld	s6,48(sp)
    800002f0:	02813b83          	ld	s7,40(sp)
    800002f4:	02013c03          	ld	s8,32(sp)
    800002f8:	01813c83          	ld	s9,24(sp)
    800002fc:	0b010113          	addi	sp,sp,176
    80000300:	00008067          	ret
    80000304:	001b4783          	lbu	a5,1(s6)
    80000308:	2f578c63          	beq	a5,s5,80000600 <printf+0x3f0>
    8000030c:	f9e7879b          	addiw	a5,a5,-98
    80000310:	0ff7f793          	zext.b	a5,a5
    80000314:	01600713          	li	a4,22
    80000318:	04f76c63          	bltu	a4,a5,80000370 <printf+0x160>
    8000031c:	00279793          	slli	a5,a5,0x2
    80000320:	014787b3          	add	a5,a5,s4
    80000324:	0007a783          	lw	a5,0(a5)
    80000328:	014787b3          	add	a5,a5,s4
    8000032c:	00078067          	jr	a5
    80000330:	02000513          	li	a0,32
    80000334:	ea1ff0ef          	jal	ra,800001d4 <putch>
    80000338:	0014849b          	addiw	s1,s1,1
    8000033c:	f85ff06f          	j	800002c0 <printf+0xb0>
    80000340:	00d00513          	li	a0,13
    80000344:	e91ff0ef          	jal	ra,800001d4 <putch>
    80000348:	0014849b          	addiw	s1,s1,1
    8000034c:	f75ff06f          	j	800002c0 <printf+0xb0>
    80000350:	00a00513          	li	a0,10
    80000354:	e81ff0ef          	jal	ra,800001d4 <putch>
    80000358:	0014849b          	addiw	s1,s1,1
    8000035c:	f65ff06f          	j	800002c0 <printf+0xb0>
    80000360:	00900513          	li	a0,9
    80000364:	e71ff0ef          	jal	ra,800001d4 <putch>
    80000368:	0044849b          	addiw	s1,s1,4
    8000036c:	f55ff06f          	j	800002c0 <printf+0xb0>
    80000370:	02000513          	li	a0,32
    80000374:	e61ff0ef          	jal	ra,800001d4 <putch>
    80000378:	0014849b          	addiw	s1,s1,1
    8000037c:	000b8b13          	mv	s6,s7
    80000380:	f45ff06f          	j	800002c4 <printf+0xb4>
    80000384:	00813783          	ld	a5,8(sp)
    80000388:	0007ab83          	lw	s7,0(a5)
    8000038c:	00878793          	addi	a5,a5,8
    80000390:	00f13423          	sd	a5,8(sp)
    80000394:	280b9463          	bnez	s7,8000061c <printf+0x40c>
    80000398:	0014849b          	addiw	s1,s1,1
    8000039c:	00100c13          	li	s8,1
    800003a0:	ffec0c1b          	addiw	s8,s8,-2
    800003a4:	000c079b          	sext.w	a5,s8
    800003a8:	048c0663          	beq	s8,s0,800003f4 <printf+0x1e4>
    800003ac:	00078713          	mv	a4,a5
    800003b0:	00100513          	li	a0,1
    800003b4:	fff7071b          	addiw	a4,a4,-1
    800003b8:	00151513          	slli	a0,a0,0x1
    800003bc:	fe871ce3          	bne	a4,s0,800003b4 <printf+0x1a4>
    800003c0:	02abd533          	divu	a0,s7,a0
    800003c4:	00100713          	li	a4,1
    800003c8:	fff7879b          	addiw	a5,a5,-1
    800003cc:	00171713          	slli	a4,a4,0x1
    800003d0:	fe879ce3          	bne	a5,s0,800003c8 <printf+0x1b8>
    800003d4:	0305051b          	addiw	a0,a0,48
    800003d8:	0ff57513          	zext.b	a0,a0
    800003dc:	fffc0c1b          	addiw	s8,s8,-1
    800003e0:	02ebfbb3          	remu	s7,s7,a4
    800003e4:	df1ff0ef          	jal	ra,800001d4 <putch>
    800003e8:	000c079b          	sext.w	a5,s8
    800003ec:	000b8b9b          	sext.w	s7,s7
    800003f0:	fa8c1ee3          	bne	s8,s0,800003ac <printf+0x19c>
    800003f4:	030b851b          	addiw	a0,s7,48
    800003f8:	0ff57513          	zext.b	a0,a0
    800003fc:	dd9ff0ef          	jal	ra,800001d4 <putch>
    80000400:	002b0b13          	addi	s6,s6,2
    80000404:	ec1ff06f          	j	800002c4 <printf+0xb4>
    80000408:	00813783          	ld	a5,8(sp)
    8000040c:	0014849b          	addiw	s1,s1,1
    80000410:	002b0b13          	addi	s6,s6,2
    80000414:	0007c503          	lbu	a0,0(a5)
    80000418:	00878793          	addi	a5,a5,8
    8000041c:	00f13423          	sd	a5,8(sp)
    80000420:	db5ff0ef          	jal	ra,800001d4 <putch>
    80000424:	ea1ff06f          	j	800002c4 <printf+0xb4>
    80000428:	00813783          	ld	a5,8(sp)
    8000042c:	0007ab83          	lw	s7,0(a5)
    80000430:	00878793          	addi	a5,a5,8
    80000434:	00f13423          	sd	a5,8(sp)
    80000438:	240bc463          	bltz	s7,80000680 <printf+0x470>
    8000043c:	280b9263          	bnez	s7,800006c0 <printf+0x4b0>
    80000440:	0014849b          	addiw	s1,s1,1
    80000444:	00100c13          	li	s8,1
    80000448:	ffec0c1b          	addiw	s8,s8,-2
    8000044c:	000c069b          	sext.w	a3,s8
    80000450:	fa8c02e3          	beq	s8,s0,800003f4 <printf+0x1e4>
    80000454:	00068713          	mv	a4,a3
    80000458:	00100793          	li	a5,1
    8000045c:	00279613          	slli	a2,a5,0x2
    80000460:	00f607b3          	add	a5,a2,a5
    80000464:	fff7071b          	addiw	a4,a4,-1
    80000468:	00179793          	slli	a5,a5,0x1
    8000046c:	fe8718e3          	bne	a4,s0,8000045c <printf+0x24c>
    80000470:	02fbd7b3          	divu	a5,s7,a5
    80000474:	00100713          	li	a4,1
    80000478:	00271613          	slli	a2,a4,0x2
    8000047c:	00e60733          	add	a4,a2,a4
    80000480:	fff6869b          	addiw	a3,a3,-1
    80000484:	00171713          	slli	a4,a4,0x1
    80000488:	fe8698e3          	bne	a3,s0,80000478 <printf+0x268>
    8000048c:	0307879b          	addiw	a5,a5,48
    80000490:	0ff7f513          	zext.b	a0,a5
    80000494:	fffc0c1b          	addiw	s8,s8,-1
    80000498:	02ebfbb3          	remu	s7,s7,a4
    8000049c:	000b8b9b          	sext.w	s7,s7
    800004a0:	d35ff0ef          	jal	ra,800001d4 <putch>
    800004a4:	fa9ff06f          	j	8000044c <printf+0x23c>
    800004a8:	00813783          	ld	a5,8(sp)
    800004ac:	0007ab83          	lw	s7,0(a5)
    800004b0:	00878793          	addi	a5,a5,8
    800004b4:	00f13423          	sd	a5,8(sp)
    800004b8:	180bce63          	bltz	s7,80000654 <printf+0x444>
    800004bc:	200b9663          	bnez	s7,800006c8 <printf+0x4b8>
    800004c0:	0014849b          	addiw	s1,s1,1
    800004c4:	00100c13          	li	s8,1
    800004c8:	ffec0c1b          	addiw	s8,s8,-2
    800004cc:	000c079b          	sext.w	a5,s8
    800004d0:	f28c02e3          	beq	s8,s0,800003f4 <printf+0x1e4>
    800004d4:	00078713          	mv	a4,a5
    800004d8:	00100513          	li	a0,1
    800004dc:	fff7071b          	addiw	a4,a4,-1
    800004e0:	00351513          	slli	a0,a0,0x3
    800004e4:	fe871ce3          	bne	a4,s0,800004dc <printf+0x2cc>
    800004e8:	02abd533          	divu	a0,s7,a0
    800004ec:	00100713          	li	a4,1
    800004f0:	fff7879b          	addiw	a5,a5,-1
    800004f4:	00371713          	slli	a4,a4,0x3
    800004f8:	fe879ce3          	bne	a5,s0,800004f0 <printf+0x2e0>
    800004fc:	0305051b          	addiw	a0,a0,48
    80000500:	0ff57513          	zext.b	a0,a0
    80000504:	fffc0c1b          	addiw	s8,s8,-1
    80000508:	02ebfbb3          	remu	s7,s7,a4
    8000050c:	000b8b9b          	sext.w	s7,s7
    80000510:	cc5ff0ef          	jal	ra,800001d4 <putch>
    80000514:	fb9ff06f          	j	800004cc <printf+0x2bc>
    80000518:	00813783          	ld	a5,8(sp)
    8000051c:	0007bb83          	ld	s7,0(a5)
    80000520:	00878793          	addi	a5,a5,8
    80000524:	00f13423          	sd	a5,8(sp)
    80000528:	000b8513          	mv	a0,s7
    8000052c:	1a4000ef          	jal	ra,800006d0 <strlen>
    80000530:	00050793          	mv	a5,a0
    80000534:	000bc503          	lbu	a0,0(s7)
    80000538:	009784bb          	addw	s1,a5,s1
    8000053c:	ec0502e3          	beqz	a0,80000400 <printf+0x1f0>
    80000540:	001b8b93          	addi	s7,s7,1
    80000544:	c91ff0ef          	jal	ra,800001d4 <putch>
    80000548:	000bc503          	lbu	a0,0(s7)
    8000054c:	fe051ae3          	bnez	a0,80000540 <printf+0x330>
    80000550:	002b0b13          	addi	s6,s6,2
    80000554:	d71ff06f          	j	800002c4 <printf+0xb4>
    80000558:	00813783          	ld	a5,8(sp)
    8000055c:	0007bc83          	ld	s9,0(a5)
    80000560:	00878793          	addi	a5,a5,8
    80000564:	00f13423          	sd	a5,8(sp)
    80000568:	0c0c9863          	bnez	s9,80000638 <printf+0x428>
    8000056c:	0014849b          	addiw	s1,s1,1
    80000570:	00100c13          	li	s8,1
    80000574:	000c0793          	mv	a5,s8
    80000578:	fffc0c1b          	addiw	s8,s8,-1
    8000057c:	00900b93          	li	s7,9
    80000580:	ffe7879b          	addiw	a5,a5,-2
    80000584:	040c0c63          	beqz	s8,800005dc <printf+0x3cc>
    80000588:	00078713          	mv	a4,a5
    8000058c:	00100693          	li	a3,1
    80000590:	fff7071b          	addiw	a4,a4,-1
    80000594:	00469693          	slli	a3,a3,0x4
    80000598:	fe871ce3          	bne	a4,s0,80000590 <printf+0x380>
    8000059c:	02dcd6b3          	divu	a3,s9,a3
    800005a0:	00100713          	li	a4,1
    800005a4:	fff7879b          	addiw	a5,a5,-1
    800005a8:	00471713          	slli	a4,a4,0x4
    800005ac:	fe879ce3          	bne	a5,s0,800005a4 <printf+0x394>
    800005b0:	0ff6f513          	zext.b	a0,a3
    800005b4:	02ecfcb3          	remu	s9,s9,a4
    800005b8:	02dbea63          	bltu	s7,a3,800005ec <printf+0x3dc>
    800005bc:	0305051b          	addiw	a0,a0,48
    800005c0:	0ff57513          	zext.b	a0,a0
    800005c4:	c11ff0ef          	jal	ra,800001d4 <putch>
    800005c8:	e20c0ce3          	beqz	s8,80000400 <printf+0x1f0>
    800005cc:	000c0793          	mv	a5,s8
    800005d0:	fffc0c1b          	addiw	s8,s8,-1
    800005d4:	ffe7879b          	addiw	a5,a5,-2
    800005d8:	fa0c18e3          	bnez	s8,80000588 <printf+0x378>
    800005dc:	000c8693          	mv	a3,s9
    800005e0:	0ff6f513          	zext.b	a0,a3
    800005e4:	00000c93          	li	s9,0
    800005e8:	fcdbfae3          	bgeu	s7,a3,800005bc <printf+0x3ac>
    800005ec:	0375051b          	addiw	a0,a0,55
    800005f0:	0ff57513          	zext.b	a0,a0
    800005f4:	be1ff0ef          	jal	ra,800001d4 <putch>
    800005f8:	fc0c1ae3          	bnez	s8,800005cc <printf+0x3bc>
    800005fc:	e05ff06f          	j	80000400 <printf+0x1f0>
    80000600:	02500513          	li	a0,37
    80000604:	bd1ff0ef          	jal	ra,800001d4 <putch>
    80000608:	0014849b          	addiw	s1,s1,1
    8000060c:	002b0b13          	addi	s6,s6,2
    80000610:	cb5ff06f          	j	800002c4 <printf+0xb4>
    80000614:	00000513          	li	a0,0
    80000618:	cb9ff06f          	j	800002d0 <printf+0xc0>
    8000061c:	000b8793          	mv	a5,s7
    80000620:	00000c13          	li	s8,0
    80000624:	0017d793          	srli	a5,a5,0x1
    80000628:	001c0c1b          	addiw	s8,s8,1
    8000062c:	fe079ce3          	bnez	a5,80000624 <printf+0x414>
    80000630:	009c04bb          	addw	s1,s8,s1
    80000634:	d6dff06f          	j	800003a0 <printf+0x190>
    80000638:	000c8793          	mv	a5,s9
    8000063c:	00000c13          	li	s8,0
    80000640:	0047d793          	srli	a5,a5,0x4
    80000644:	001c0c1b          	addiw	s8,s8,1
    80000648:	fe079ce3          	bnez	a5,80000640 <printf+0x430>
    8000064c:	009c04bb          	addw	s1,s8,s1
    80000650:	f25ff06f          	j	80000574 <printf+0x364>
    80000654:	02d00513          	li	a0,45
    80000658:	41700bbb          	negw	s7,s7
    8000065c:	b79ff0ef          	jal	ra,800001d4 <putch>
    80000660:	0014849b          	addiw	s1,s1,1
    80000664:	000b8793          	mv	a5,s7
    80000668:	00000c13          	li	s8,0
    8000066c:	0037d793          	srli	a5,a5,0x3
    80000670:	001c0c1b          	addiw	s8,s8,1
    80000674:	fe079ce3          	bnez	a5,8000066c <printf+0x45c>
    80000678:	009c04bb          	addw	s1,s8,s1
    8000067c:	e4dff06f          	j	800004c8 <printf+0x2b8>
    80000680:	02d00513          	li	a0,45
    80000684:	41700bbb          	negw	s7,s7
    80000688:	b4dff0ef          	jal	ra,800001d4 <putch>
    8000068c:	0014849b          	addiw	s1,s1,1
    80000690:	000b8793          	mv	a5,s7
    80000694:	00000c13          	li	s8,0
    80000698:	00a00613          	li	a2,10
    8000069c:	00900693          	li	a3,9
    800006a0:	00078713          	mv	a4,a5
    800006a4:	001c0c1b          	addiw	s8,s8,1
    800006a8:	02c7d7b3          	divu	a5,a5,a2
    800006ac:	fee6eae3          	bltu	a3,a4,800006a0 <printf+0x490>
    800006b0:	009c04bb          	addw	s1,s8,s1
    800006b4:	d95ff06f          	j	80000448 <printf+0x238>
    800006b8:	fff00513          	li	a0,-1
    800006bc:	c15ff06f          	j	800002d0 <printf+0xc0>
    800006c0:	000b8793          	mv	a5,s7
    800006c4:	fd1ff06f          	j	80000694 <printf+0x484>
    800006c8:	000b8793          	mv	a5,s7
    800006cc:	f9dff06f          	j	80000668 <printf+0x458>

00000000800006d0 <strlen>:
    800006d0:	02050663          	beqz	a0,800006fc <strlen+0x2c>
    800006d4:	00054783          	lbu	a5,0(a0)
    800006d8:	00050713          	mv	a4,a0
    800006dc:	00000513          	li	a0,0
    800006e0:	00078c63          	beqz	a5,800006f8 <strlen+0x28>
    800006e4:	00150513          	addi	a0,a0,1
    800006e8:	00a707b3          	add	a5,a4,a0
    800006ec:	0007c783          	lbu	a5,0(a5)
    800006f0:	fe079ae3          	bnez	a5,800006e4 <strlen+0x14>
    800006f4:	00008067          	ret
    800006f8:	00008067          	ret
    800006fc:	ff010113          	addi	sp,sp,-16
    80000700:	00800613          	li	a2,8
    80000704:	00000597          	auipc	a1,0x0
    80000708:	1b458593          	addi	a1,a1,436 # 800008b8 <_etext+0x144>
    8000070c:	00000517          	auipc	a0,0x0
    80000710:	0b450513          	addi	a0,a0,180 # 800007c0 <_etext+0x4c>
    80000714:	00113423          	sd	ra,8(sp)
    80000718:	af9ff0ef          	jal	ra,80000210 <printf>
    8000071c:	00100513          	li	a0,1
    80000720:	ac5ff0ef          	jal	ra,800001e4 <halt>

0000000080000724 <memset>:
    80000724:	02050463          	beqz	a0,8000074c <memset+0x28>
    80000728:	0ff5f593          	zext.b	a1,a1
    8000072c:	00c50733          	add	a4,a0,a2
    80000730:	00050793          	mv	a5,a0
    80000734:	00060a63          	beqz	a2,80000748 <memset+0x24>
    80000738:	00178793          	addi	a5,a5,1
    8000073c:	feb78fa3          	sb	a1,-1(a5)
    80000740:	fee79ce3          	bne	a5,a4,80000738 <memset+0x14>
    80000744:	00008067          	ret
    80000748:	00008067          	ret
    8000074c:	ff010113          	addi	sp,sp,-16
    80000750:	05200613          	li	a2,82
    80000754:	00000597          	auipc	a1,0x0
    80000758:	16458593          	addi	a1,a1,356 # 800008b8 <_etext+0x144>
    8000075c:	00000517          	auipc	a0,0x0
    80000760:	06450513          	addi	a0,a0,100 # 800007c0 <_etext+0x4c>
    80000764:	00113423          	sd	ra,8(sp)
    80000768:	aa9ff0ef          	jal	ra,80000210 <printf>
    8000076c:	00100513          	li	a0,1
    80000770:	a75ff0ef          	jal	ra,800001e4 <halt>
