
/home/xg/ysyx-workbench/am-kernels/tests/am-tests/build/amtest-riscv64-nemu.elf：     文件格式 elf64-littleriscv


Disassembly of section .text:

0000000080000000 <_start>:
    80000000:	00000413          	li	s0,0
    80000004:	0009e117          	auipc	sp,0x9e
    80000008:	ffc10113          	addi	sp,sp,-4 # 8009e000 <_end>
    8000000c:	7d9000ef          	jal	ra,80000fe4 <_trm_init>

0000000080000010 <hello>:
    80000010:	fe010113          	addi	sp,sp,-32
    80000014:	00913423          	sd	s1,8(sp)
    80000018:	00113c23          	sd	ra,24(sp)
    8000001c:	00813823          	sd	s0,16(sp)
    80000020:	00a00493          	li	s1,10
    80000024:	00002417          	auipc	s0,0x2
    80000028:	b5c40413          	addi	s0,s0,-1188 # 80001b80 <_etext>
    8000002c:	04800513          	li	a0,72
    80000030:	00140413          	addi	s0,s0,1
    80000034:	795000ef          	jal	ra,80000fc8 <putch>
    80000038:	00044503          	lbu	a0,0(s0)
    8000003c:	fe051ae3          	bnez	a0,80000030 <hello+0x20>
    80000040:	fff4849b          	addiw	s1,s1,-1
    80000044:	fe0490e3          	bnez	s1,80000024 <hello+0x14>
    80000048:	01813083          	ld	ra,24(sp)
    8000004c:	01013403          	ld	s0,16(sp)
    80000050:	00813483          	ld	s1,8(sp)
    80000054:	02010113          	addi	sp,sp,32
    80000058:	00008067          	ret

000000008000005c <devscan>:
    8000005c:	00011797          	auipc	a5,0x11
    80000060:	dc478793          	addi	a5,a5,-572 # 80010e20 <heap>
    80000064:	0007b583          	ld	a1,0(a5)
    80000068:	0087b603          	ld	a2,8(a5)
    8000006c:	fb010113          	addi	sp,sp,-80
    80000070:	00002517          	auipc	a0,0x2
    80000074:	b3050513          	addi	a0,a0,-1232 # 80001ba0 <_etext+0x20>
    80000078:	04113423          	sd	ra,72(sp)
    8000007c:	03213823          	sd	s2,48(sp)
    80000080:	04813023          	sd	s0,64(sp)
    80000084:	02913c23          	sd	s1,56(sp)
    80000088:	03313423          	sd	s3,40(sp)
    8000008c:	03413023          	sd	s4,32(sp)
    80000090:	5cc010ef          	jal	ra,8000165c <printf>
    80000094:	00002517          	auipc	a0,0x2
    80000098:	b2450513          	addi	a0,a0,-1244 # 80001bb8 <_etext+0x38>
    8000009c:	5c0010ef          	jal	ra,8000165c <printf>
    800000a0:	00810593          	addi	a1,sp,8
    800000a4:	00600513          	li	a0,6
    800000a8:	04c010ef          	jal	ra,800010f4 <ioe_read>
    800000ac:	00813903          	ld	s2,8(sp)
    800000b0:	3e800793          	li	a5,1000
    800000b4:	00012223          	sw	zero,4(sp)
    800000b8:	02f95933          	divu	s2,s2,a5
    800000bc:	00412783          	lw	a5,4(sp)
    800000c0:	00989737          	lui	a4,0x989
    800000c4:	67f70713          	addi	a4,a4,1663 # 98967f <_entry_offset+0x98967f>
    800000c8:	0009091b          	sext.w	s2,s2
    800000cc:	00f74c63          	blt	a4,a5,800000e4 <devscan+0x88>
    800000d0:	00412783          	lw	a5,4(sp)
    800000d4:	0017879b          	addiw	a5,a5,1
    800000d8:	00f12223          	sw	a5,4(sp)
    800000dc:	00412783          	lw	a5,4(sp)
    800000e0:	fef758e3          	bge	a4,a5,800000d0 <devscan+0x74>
    800000e4:	00810593          	addi	a1,sp,8
    800000e8:	00600513          	li	a0,6
    800000ec:	008010ef          	jal	ra,800010f4 <ioe_read>
    800000f0:	00813583          	ld	a1,8(sp)
    800000f4:	3e800793          	li	a5,1000
    800000f8:	00002517          	auipc	a0,0x2
    800000fc:	ae050513          	addi	a0,a0,-1312 # 80001bd8 <_etext+0x58>
    80000100:	02f5d5b3          	divu	a1,a1,a5
    80000104:	00011417          	auipc	s0,0x11
    80000108:	40440413          	addi	s0,s0,1028 # 80011508 <vmem+0xd0>
    8000010c:	00091497          	auipc	s1,0x91
    80000110:	32c48493          	addi	s1,s1,812 # 80091438 <prot>
    80000114:	412585bb          	subw	a1,a1,s2
    80000118:	544010ef          	jal	ra,8000165c <printf>
    8000011c:	00810593          	addi	a1,sp,8
    80000120:	00900513          	li	a0,9
    80000124:	7d1000ef          	jal	ra,800010f4 <ioe_read>
    80000128:	00c12983          	lw	s3,12(sp)
    8000012c:	01012903          	lw	s2,16(sp)
    80000130:	00002517          	auipc	a0,0x2
    80000134:	ac850513          	addi	a0,a0,-1336 # 80001bf8 <_etext+0x78>
    80000138:	00098593          	mv	a1,s3
    8000013c:	00090613          	mv	a2,s2
    80000140:	51c010ef          	jal	ra,8000165c <printf>
    80000144:	4e4010ef          	jal	ra,80001628 <rand>
    80000148:	00a40023          	sb	a0,0(s0)
    8000014c:	00140413          	addi	s0,s0,1
    80000150:	fe941ae3          	bne	s0,s1,80000144 <devscan+0xe8>
    80000154:	41f9d71b          	sraiw	a4,s3,0x1f
    80000158:	01e7571b          	srliw	a4,a4,0x1e
    8000015c:	0137073b          	addw	a4,a4,s3
    80000160:	00011797          	auipc	a5,0x11
    80000164:	2d878793          	addi	a5,a5,728 # 80011438 <vmem>
    80000168:	4027571b          	sraiw	a4,a4,0x2
    8000016c:	00e79323          	sh	a4,6(a5)
    80000170:	00011717          	auipc	a4,0x11
    80000174:	2c071823          	sh	zero,720(a4) # 80011440 <vmem+0x8>
    80000178:	01f9d69b          	srliw	a3,s3,0x1f
    8000017c:	02500713          	li	a4,37
    80000180:	00e79923          	sh	a4,18(a5)
    80000184:	013686bb          	addw	a3,a3,s3
    80000188:	00a00713          	li	a4,10
    8000018c:	ffff0837          	lui	a6,0xffff0
    80000190:	fff00613          	li	a2,-1
    80000194:	4016d69b          	sraiw	a3,a3,0x1
    80000198:	00180813          	addi	a6,a6,1 # ffffffffffff0001 <_end+0xffffffff7ff52001>
    8000019c:	00e79a23          	sh	a4,20(a5)
    800001a0:	f9c9091b          	addiw	s2,s2,-100
    800001a4:	0d000713          	li	a4,208
    800001a8:	00e79b23          	sh	a4,22(a5)
    800001ac:	0107a023          	sw	a6,0(a5)
    800001b0:	00d79523          	sh	a3,10(a5)
    800001b4:	00c79223          	sh	a2,4(a5)
    800001b8:	00c79723          	sh	a2,14(a5)
    800001bc:	00c79823          	sh	a2,16(a5)
    800001c0:	01279623          	sh	s2,12(a5)
    800001c4:	00810593          	addi	a1,sp,8
    800001c8:	00c00513          	li	a0,12
    800001cc:	00f13823          	sd	a5,16(sp)
    800001d0:	000807b7          	lui	a5,0x80
    800001d4:	00f12c23          	sw	a5,24(sp)
    800001d8:	00011717          	auipc	a4,0x11
    800001dc:	26071c23          	sh	zero,632(a4) # 80011450 <vmem+0x18>
    800001e0:	00012423          	sw	zero,8(sp)
    800001e4:	72d000ef          	jal	ra,80001110 <ioe_write>
    800001e8:	00d00513          	li	a0,13
    800001ec:	00810593          	addi	a1,sp,8
    800001f0:	00012423          	sw	zero,8(sp)
    800001f4:	71d000ef          	jal	ra,80001110 <ioe_write>
    800001f8:	00810593          	addi	a1,sp,8
    800001fc:	01200513          	li	a0,18
    80000200:	6f5000ef          	jal	ra,800010f4 <ioe_read>
    80000204:	00c12403          	lw	s0,12(sp)
    80000208:	01012583          	lw	a1,16(sp)
    8000020c:	00002517          	auipc	a0,0x2
    80000210:	a0450513          	addi	a0,a0,-1532 # 80001c10 <_etext+0x90>
    80000214:	00040613          	mv	a2,s0
    80000218:	444010ef          	jal	ra,8000165c <printf>
    8000021c:	20000793          	li	a5,512
    80000220:	0287c7bb          	divw	a5,a5,s0
    80000224:	00011497          	auipc	s1,0x11
    80000228:	01448493          	addi	s1,s1,20 # 80011238 <buf.0>
    8000022c:	00810593          	addi	a1,sp,8
    80000230:	01400513          	li	a0,20
    80000234:	00913823          	sd	s1,16(sp)
    80000238:	00010423          	sb	zero,8(sp)
    8000023c:	00012c23          	sw	zero,24(sp)
    80000240:	00002917          	auipc	s2,0x2
    80000244:	a0890913          	addi	s2,s2,-1528 # 80001c48 <_etext+0xc8>
    80000248:	00011417          	auipc	s0,0x11
    8000024c:	ff240413          	addi	s0,s0,-14 # 8001123a <buf.0+0x2>
    80000250:	00011997          	auipc	s3,0x11
    80000254:	1e898993          	addi	s3,s3,488 # 80011438 <vmem>
    80000258:	00002a17          	auipc	s4,0x2
    8000025c:	028a0a13          	addi	s4,s4,40 # 80002280 <names+0x2f8>
    80000260:	00f12e23          	sw	a5,28(sp)
    80000264:	6ad000ef          	jal	ra,80001110 <ioe_write>
    80000268:	0014c603          	lbu	a2,1(s1)
    8000026c:	0004c583          	lbu	a1,0(s1)
    80000270:	00090513          	mv	a0,s2
    80000274:	00400493          	li	s1,4
    80000278:	3e4010ef          	jal	ra,8000165c <printf>
    8000027c:	408484bb          	subw	s1,s1,s0
    80000280:	00090513          	mv	a0,s2
    80000284:	03340463          	beq	s0,s3,800002ac <devscan+0x250>
    80000288:	00144603          	lbu	a2,1(s0)
    8000028c:	00044583          	lbu	a1,0(s0)
    80000290:	3cc010ef          	jal	ra,8000165c <printf>
    80000294:	008487bb          	addw	a5,s1,s0
    80000298:	01f7f793          	andi	a5,a5,31
    8000029c:	02078063          	beqz	a5,800002bc <devscan+0x260>
    800002a0:	00240413          	addi	s0,s0,2
    800002a4:	00090513          	mv	a0,s2
    800002a8:	ff3410e3          	bne	s0,s3,80000288 <devscan+0x22c>
    800002ac:	00002517          	auipc	a0,0x2
    800002b0:	9ac50513          	addi	a0,a0,-1620 # 80001c58 <_etext+0xd8>
    800002b4:	3a8010ef          	jal	ra,8000165c <printf>
    800002b8:	0000006f          	j	800002b8 <devscan+0x25c>
    800002bc:	000a0513          	mv	a0,s4
    800002c0:	39c010ef          	jal	ra,8000165c <printf>
    800002c4:	00240413          	addi	s0,s0,2
    800002c8:	fddff06f          	j	800002a4 <devscan+0x248>

00000000800002cc <keyboard_test>:
    800002cc:	fb010113          	addi	sp,sp,-80
    800002d0:	00002517          	auipc	a0,0x2
    800002d4:	9a850513          	addi	a0,a0,-1624 # 80001c78 <_etext+0xf8>
    800002d8:	04113423          	sd	ra,72(sp)
    800002dc:	04813023          	sd	s0,64(sp)
    800002e0:	02913c23          	sd	s1,56(sp)
    800002e4:	03213823          	sd	s2,48(sp)
    800002e8:	03313423          	sd	s3,40(sp)
    800002ec:	03413023          	sd	s4,32(sp)
    800002f0:	01513c23          	sd	s5,24(sp)
    800002f4:	368010ef          	jal	ra,8000165c <printf>
    800002f8:	00810593          	addi	a1,sp,8
    800002fc:	00100513          	li	a0,1
    80000300:	5f5000ef          	jal	ra,800010f4 <ioe_read>
    80000304:	00814783          	lbu	a5,8(sp)
    80000308:	00095997          	auipc	s3,0x95
    8000030c:	17198993          	addi	s3,s3,369 # 80095479 <has_uart>
    80000310:	00810593          	addi	a1,sp,8
    80000314:	00700513          	li	a0,7
    80000318:	00f98023          	sb	a5,0(s3)
    8000031c:	5d9000ef          	jal	ra,800010f4 <ioe_read>
    80000320:	00814783          	lbu	a5,8(sp)
    80000324:	00095a97          	auipc	s5,0x95
    80000328:	154a8a93          	addi	s5,s5,340 # 80095478 <has_kbd>
    8000032c:	00002497          	auipc	s1,0x2
    80000330:	c5c48493          	addi	s1,s1,-932 # 80001f88 <names>
    80000334:	00fa8023          	sb	a5,0(s5)
    80000338:	00002917          	auipc	s2,0x2
    8000033c:	93090913          	addi	s2,s2,-1744 # 80001c68 <_etext+0xe8>
    80000340:	00002a17          	auipc	s4,0x2
    80000344:	930a0a13          	addi	s4,s4,-1744 # 80001c70 <_etext+0xf0>
    80000348:	00002417          	auipc	s0,0x2
    8000034c:	97840413          	addi	s0,s0,-1672 # 80001cc0 <_etext+0x140>
    80000350:	0009c703          	lbu	a4,0(s3)
    80000354:	02070663          	beqz	a4,80000380 <keyboard_test+0xb4>
    80000358:	00002417          	auipc	s0,0x2
    8000035c:	95040413          	addi	s0,s0,-1712 # 80001ca8 <_etext+0x128>
    80000360:	00810593          	addi	a1,sp,8
    80000364:	00300513          	li	a0,3
    80000368:	58d000ef          	jal	ra,800010f4 <ioe_read>
    8000036c:	00814603          	lbu	a2,8(sp)
    80000370:	00040513          	mv	a0,s0
    80000374:	00060593          	mv	a1,a2
    80000378:	2e4010ef          	jal	ra,8000165c <printf>
    8000037c:	fe5ff06f          	j	80000360 <keyboard_test+0x94>
    80000380:	00079e63          	bnez	a5,8000039c <keyboard_test+0xd0>
    80000384:	0000006f          	j	80000384 <keyboard_test+0xb8>
    80000388:	0007b583          	ld	a1,0(a5) # 80000 <_entry_offset+0x80000>
    8000038c:	00090693          	mv	a3,s2
    80000390:	00071463          	bnez	a4,80000398 <keyboard_test+0xcc>
    80000394:	000a0693          	mv	a3,s4
    80000398:	2c4010ef          	jal	ra,8000165c <printf>
    8000039c:	00800513          	li	a0,8
    800003a0:	00810593          	addi	a1,sp,8
    800003a4:	551000ef          	jal	ra,800010f4 <ioe_read>
    800003a8:	00c12603          	lw	a2,12(sp)
    800003ac:	00814703          	lbu	a4,8(sp)
    800003b0:	00040513          	mv	a0,s0
    800003b4:	00361793          	slli	a5,a2,0x3
    800003b8:	00f487b3          	add	a5,s1,a5
    800003bc:	fc0616e3          	bnez	a2,80000388 <keyboard_test+0xbc>
    800003c0:	000ac783          	lbu	a5,0(s5)
    800003c4:	f8dff06f          	j	80000350 <keyboard_test+0x84>

00000000800003c8 <mp_print>:
    800003c8:	ff010113          	addi	sp,sp,-16
    800003cc:	00813023          	sd	s0,0(sp)
    800003d0:	00113423          	sd	ra,8(sp)
    800003d4:	00002417          	auipc	s0,0x2
    800003d8:	e4c40413          	addi	s0,s0,-436 # 80002220 <names+0x298>
    800003dc:	759000ef          	jal	ra,80001334 <cpu_current>
    800003e0:	00050593          	mv	a1,a0
    800003e4:	00040513          	mv	a0,s0
    800003e8:	274010ef          	jal	ra,8000165c <printf>
    800003ec:	ff1ff06f          	j	800003dc <mp_print+0x14>

00000000800003f0 <audio_test>:
    800003f0:	fc010113          	addi	sp,sp,-64
    800003f4:	00010593          	mv	a1,sp
    800003f8:	00e00513          	li	a0,14
    800003fc:	02113c23          	sd	ra,56(sp)
    80000400:	02813823          	sd	s0,48(sp)
    80000404:	02913423          	sd	s1,40(sp)
    80000408:	03213023          	sd	s2,32(sp)
    8000040c:	01313c23          	sd	s3,24(sp)
    80000410:	01413823          	sd	s4,16(sp)
    80000414:	4e1000ef          	jal	ra,800010f4 <ioe_read>
    80000418:	00014783          	lbu	a5,0(sp)
    8000041c:	0c078c63          	beqz	a5,800004f4 <audio_test+0x104>
    80000420:	040007b7          	lui	a5,0x4000
    80000424:	07d78793          	addi	a5,a5,125 # 400007d <_entry_offset+0x400007d>
    80000428:	00679793          	slli	a5,a5,0x6
    8000042c:	00003497          	auipc	s1,0x3
    80000430:	bcc48493          	addi	s1,s1,-1076 # 80002ff8 <audio_payload>
    80000434:	00011917          	auipc	s2,0x11
    80000438:	9d090913          	addi	s2,s2,-1584 # 80010e04 <_data>
    8000043c:	00f13023          	sd	a5,0(sp)
    80000440:	00010593          	mv	a1,sp
    80000444:	40000793          	li	a5,1024
    80000448:	00f00513          	li	a0,15
    8000044c:	4099093b          	subw	s2,s2,s1
    80000450:	00f12423          	sw	a5,8(sp)
    80000454:	4bd000ef          	jal	ra,80001110 <ioe_write>
    80000458:	06090463          	beqz	s2,800004c0 <audio_test+0xd0>
    8000045c:	00000413          	li	s0,0
    80000460:	00000793          	li	a5,0
    80000464:	00001a37          	lui	s4,0x1
    80000468:	00002997          	auipc	s3,0x2
    8000046c:	df898993          	addi	s3,s3,-520 # 80002260 <names+0x2d8>
    80000470:	40f907bb          	subw	a5,s2,a5
    80000474:	0007869b          	sext.w	a3,a5
    80000478:	00048713          	mv	a4,s1
    8000047c:	00010593          	mv	a1,sp
    80000480:	01100513          	li	a0,17
    80000484:	00da7463          	bgeu	s4,a3,8000048c <audio_test+0x9c>
    80000488:	000017b7          	lui	a5,0x1
    8000048c:	02079693          	slli	a3,a5,0x20
    80000490:	0206d693          	srli	a3,a3,0x20
    80000494:	00d484b3          	add	s1,s1,a3
    80000498:	0087843b          	addw	s0,a5,s0
    8000049c:	00e13023          	sd	a4,0(sp)
    800004a0:	00913423          	sd	s1,8(sp)
    800004a4:	46d000ef          	jal	ra,80001110 <ioe_write>
    800004a8:	00090613          	mv	a2,s2
    800004ac:	00040593          	mv	a1,s0
    800004b0:	00098513          	mv	a0,s3
    800004b4:	1a8010ef          	jal	ra,8000165c <printf>
    800004b8:	00040793          	mv	a5,s0
    800004bc:	fb246ae3          	bltu	s0,s2,80000470 <audio_test+0x80>
    800004c0:	00010593          	mv	a1,sp
    800004c4:	01000513          	li	a0,16
    800004c8:	42d000ef          	jal	ra,800010f4 <ioe_read>
    800004cc:	00012783          	lw	a5,0(sp)
    800004d0:	fef048e3          	bgtz	a5,800004c0 <audio_test+0xd0>
    800004d4:	03813083          	ld	ra,56(sp)
    800004d8:	03013403          	ld	s0,48(sp)
    800004dc:	02813483          	ld	s1,40(sp)
    800004e0:	02013903          	ld	s2,32(sp)
    800004e4:	01813983          	ld	s3,24(sp)
    800004e8:	01013a03          	ld	s4,16(sp)
    800004ec:	04010113          	addi	sp,sp,64
    800004f0:	00008067          	ret
    800004f4:	03013403          	ld	s0,48(sp)
    800004f8:	03813083          	ld	ra,56(sp)
    800004fc:	02813483          	ld	s1,40(sp)
    80000500:	02013903          	ld	s2,32(sp)
    80000504:	01813983          	ld	s3,24(sp)
    80000508:	01013a03          	ld	s4,16(sp)
    8000050c:	00002597          	auipc	a1,0x2
    80000510:	d1c58593          	addi	a1,a1,-740 # 80002228 <names+0x2a0>
    80000514:	00002517          	auipc	a0,0x2
    80000518:	d2450513          	addi	a0,a0,-732 # 80002238 <names+0x2b0>
    8000051c:	04010113          	addi	sp,sp,64
    80000520:	13c0106f          	j	8000165c <printf>

0000000080000524 <rtc_test>:
    80000524:	fa010113          	addi	sp,sp,-96
    80000528:	04913423          	sd	s1,72(sp)
    8000052c:	000f44b7          	lui	s1,0xf4
    80000530:	04813823          	sd	s0,80(sp)
    80000534:	03313c23          	sd	s3,56(sp)
    80000538:	03413823          	sd	s4,48(sp)
    8000053c:	03513423          	sd	s5,40(sp)
    80000540:	03613023          	sd	s6,32(sp)
    80000544:	04113c23          	sd	ra,88(sp)
    80000548:	05213023          	sd	s2,64(sp)
    8000054c:	00100413          	li	s0,1
    80000550:	24048493          	addi	s1,s1,576 # f4240 <_entry_offset+0xf4240>
    80000554:	00002a17          	auipc	s4,0x2
    80000558:	d34a0a13          	addi	s4,s4,-716 # 80002288 <names+0x300>
    8000055c:	00100993          	li	s3,1
    80000560:	00002b17          	auipc	s6,0x2
    80000564:	d58b0b13          	addi	s6,s6,-680 # 800022b8 <names+0x330>
    80000568:	00002a97          	auipc	s5,0x2
    8000056c:	d40a8a93          	addi	s5,s5,-704 # 800022a8 <names+0x320>
    80000570:	0004091b          	sext.w	s2,s0
    80000574:	00810593          	addi	a1,sp,8
    80000578:	00600513          	li	a0,6
    8000057c:	379000ef          	jal	ra,800010f4 <ioe_read>
    80000580:	00813783          	ld	a5,8(sp)
    80000584:	0297d7b3          	divu	a5,a5,s1
    80000588:	fe87e6e3          	bltu	a5,s0,80000574 <rtc_test+0x50>
    8000058c:	00810593          	addi	a1,sp,8
    80000590:	00500513          	li	a0,5
    80000594:	361000ef          	jal	ra,800010f4 <ioe_read>
    80000598:	01c12803          	lw	a6,28(sp)
    8000059c:	01812783          	lw	a5,24(sp)
    800005a0:	01412703          	lw	a4,20(sp)
    800005a4:	01012683          	lw	a3,16(sp)
    800005a8:	00c12603          	lw	a2,12(sp)
    800005ac:	00812583          	lw	a1,8(sp)
    800005b0:	000a0513          	mv	a0,s4
    800005b4:	0a8010ef          	jal	ra,8000165c <printf>
    800005b8:	01341c63          	bne	s0,s3,800005d0 <rtc_test+0xac>
    800005bc:	00100593          	li	a1,1
    800005c0:	000a8513          	mv	a0,s5
    800005c4:	098010ef          	jal	ra,8000165c <printf>
    800005c8:	00140413          	addi	s0,s0,1
    800005cc:	fa5ff06f          	j	80000570 <rtc_test+0x4c>
    800005d0:	00090593          	mv	a1,s2
    800005d4:	000b0513          	mv	a0,s6
    800005d8:	084010ef          	jal	ra,8000165c <printf>
    800005dc:	00140413          	addi	s0,s0,1
    800005e0:	f91ff06f          	j	80000570 <rtc_test+0x4c>

00000000800005e4 <simple_pgalloc>:
    800005e4:	00095617          	auipc	a2,0x95
    800005e8:	e9c60613          	addi	a2,a2,-356 # 80095480 <st>
    800005ec:	00063683          	ld	a3,0(a2)
    800005f0:	00069663          	bnez	a3,800005fc <simple_pgalloc+0x18>
    800005f4:	00011697          	auipc	a3,0x11
    800005f8:	82c6b683          	ld	a3,-2004(a3) # 80010e20 <heap>
    800005fc:	02a6f7b3          	remu	a5,a3,a0
    80000600:	00078c63          	beqz	a5,80000618 <simple_pgalloc+0x34>
    80000604:	00168793          	addi	a5,a3,1
    80000608:	02a7f733          	remu	a4,a5,a0
    8000060c:	00078693          	mv	a3,a5
    80000610:	00178793          	addi	a5,a5,1 # 1001 <_entry_offset+0x1001>
    80000614:	fe071ae3          	bnez	a4,80000608 <simple_pgalloc+0x24>
    80000618:	00d50533          	add	a0,a0,a3
    8000061c:	00a63023          	sd	a0,0(a2)
    80000620:	00068513          	mv	a0,a3
    80000624:	00008067          	ret

0000000080000628 <simple_pgfree>:
    80000628:	00008067          	ret

000000008000062c <vm_handler>:
    8000062c:	00052783          	lw	a5,0(a0)
    80000630:	fe010113          	addi	sp,sp,-32
    80000634:	00813823          	sd	s0,16(sp)
    80000638:	00113c23          	sd	ra,24(sp)
    8000063c:	00300713          	li	a4,3
    80000640:	00853603          	ld	a2,8(a0)
    80000644:	00058413          	mv	s0,a1
    80000648:	0ce78263          	beq	a5,a4,8000070c <vm_handler+0xe0>
    8000064c:	08f76263          	bltu	a4,a5,800006d0 <vm_handler+0xa4>
    80000650:	00100713          	li	a4,1
    80000654:	08e78c63          	beq	a5,a4,800006ec <vm_handler+0xc0>
    80000658:	00200713          	li	a4,2
    8000065c:	12e79463          	bne	a5,a4,80000784 <vm_handler+0x158>
    80000660:	00100513          	li	a0,1
    80000664:	5c1000ef          	jal	ra,80001424 <iset>
    80000668:	00012623          	sw	zero,12(sp)
    8000066c:	00c12783          	lw	a5,12(sp)
    80000670:	000f4737          	lui	a4,0xf4
    80000674:	23f70713          	addi	a4,a4,575 # f423f <_entry_offset+0xf423f>
    80000678:	00f74c63          	blt	a4,a5,80000690 <vm_handler+0x64>
    8000067c:	00c12783          	lw	a5,12(sp)
    80000680:	0017879b          	addiw	a5,a5,1
    80000684:	00f12623          	sw	a5,12(sp)
    80000688:	00c12783          	lw	a5,12(sp)
    8000068c:	fef758e3          	bge	a4,a5,8000067c <vm_handler+0x50>
    80000690:	05043583          	ld	a1,80(s0)
    80000694:	00002517          	auipc	a0,0x2
    80000698:	c8450513          	addi	a0,a0,-892 # 80002318 <names+0x390>
    8000069c:	7c1000ef          	jal	ra,8000165c <printf>
    800006a0:	00010797          	auipc	a5,0x10
    800006a4:	7787a783          	lw	a5,1912(a5) # 80010e18 <first_trap>
    800006a8:	00078a63          	beqz	a5,800006bc <vm_handler+0x90>
    800006ac:	00010797          	auipc	a5,0x10
    800006b0:	7607a623          	sw	zero,1900(a5) # 80010e18 <first_trap>
    800006b4:	00095417          	auipc	s0,0x95
    800006b8:	dd443403          	ld	s0,-556(s0) # 80095488 <uctx>
    800006bc:	01813083          	ld	ra,24(sp)
    800006c0:	00040513          	mv	a0,s0
    800006c4:	01013403          	ld	s0,16(sp)
    800006c8:	02010113          	addi	sp,sp,32
    800006cc:	00008067          	ret
    800006d0:	ffb7879b          	addiw	a5,a5,-5
    800006d4:	00100713          	li	a4,1
    800006d8:	0af76663          	bltu	a4,a5,80000784 <vm_handler+0x158>
    800006dc:	01853583          	ld	a1,24(a0)
    800006e0:	00002517          	auipc	a0,0x2
    800006e4:	c0850513          	addi	a0,a0,-1016 # 800022e8 <names+0x360>
    800006e8:	775000ef          	jal	ra,8000165c <printf>
    800006ec:	00010797          	auipc	a5,0x10
    800006f0:	72c7a783          	lw	a5,1836(a5) # 80010e18 <first_trap>
    800006f4:	fc0784e3          	beqz	a5,800006bc <vm_handler+0x90>
    800006f8:	00010797          	auipc	a5,0x10
    800006fc:	7207a023          	sw	zero,1824(a5) # 80010e18 <first_trap>
    80000700:	00095417          	auipc	s0,0x95
    80000704:	d8843403          	ld	s0,-632(s0) # 80095488 <uctx>
    80000708:	fb5ff06f          	j	800006bc <vm_handler+0x90>
    8000070c:	00167793          	andi	a5,a2,1
    80000710:	01053583          	ld	a1,16(a0)
    80000714:	00002697          	auipc	a3,0x2
    80000718:	bb468693          	addi	a3,a3,-1100 # 800022c8 <names+0x340>
    8000071c:	04078663          	beqz	a5,80000768 <vm_handler+0x13c>
    80000720:	00267613          	andi	a2,a2,2
    80000724:	00002717          	auipc	a4,0x2
    80000728:	bb470713          	addi	a4,a4,-1100 # 800022d8 <names+0x350>
    8000072c:	00060e63          	beqz	a2,80000748 <vm_handler+0x11c>
    80000730:	00002617          	auipc	a2,0x2
    80000734:	75860613          	addi	a2,a2,1880 # 80002e88 <tests+0x880>
    80000738:	00002517          	auipc	a0,0x2
    8000073c:	bd050513          	addi	a0,a0,-1072 # 80002308 <names+0x380>
    80000740:	71d000ef          	jal	ra,8000165c <printf>
    80000744:	fa9ff06f          	j	800006ec <vm_handler+0xc0>
    80000748:	00002717          	auipc	a4,0x2
    8000074c:	74070713          	addi	a4,a4,1856 # 80002e88 <tests+0x880>
    80000750:	00002617          	auipc	a2,0x2
    80000754:	73860613          	addi	a2,a2,1848 # 80002e88 <tests+0x880>
    80000758:	00002517          	auipc	a0,0x2
    8000075c:	bb050513          	addi	a0,a0,-1104 # 80002308 <names+0x380>
    80000760:	6fd000ef          	jal	ra,8000165c <printf>
    80000764:	f89ff06f          	j	800006ec <vm_handler+0xc0>
    80000768:	00267613          	andi	a2,a2,2
    8000076c:	00002697          	auipc	a3,0x2
    80000770:	71c68693          	addi	a3,a3,1820 # 80002e88 <tests+0x880>
    80000774:	00002717          	auipc	a4,0x2
    80000778:	b6470713          	addi	a4,a4,-1180 # 800022d8 <names+0x350>
    8000077c:	fa061ae3          	bnez	a2,80000730 <vm_handler+0x104>
    80000780:	fc9ff06f          	j	80000748 <vm_handler+0x11c>
    80000784:	02800613          	li	a2,40
    80000788:	00002597          	auipc	a1,0x2
    8000078c:	b9858593          	addi	a1,a1,-1128 # 80002320 <names+0x398>
    80000790:	00002517          	auipc	a0,0x2
    80000794:	bd850513          	addi	a0,a0,-1064 # 80002368 <names+0x3e0>
    80000798:	6c5000ef          	jal	ra,8000165c <printf>
    8000079c:	00100513          	li	a0,1
    800007a0:	039000ef          	jal	ra,80000fd8 <halt>

00000000800007a4 <vm_test>:
    800007a4:	fd010113          	addi	sp,sp,-48
    800007a8:	00300613          	li	a2,3
    800007ac:	00002597          	auipc	a1,0x2
    800007b0:	bdc58593          	addi	a1,a1,-1060 # 80002388 <names+0x400>
    800007b4:	00002517          	auipc	a0,0x2
    800007b8:	bdc50513          	addi	a0,a0,-1060 # 80002390 <names+0x408>
    800007bc:	02113423          	sd	ra,40(sp)
    800007c0:	02813023          	sd	s0,32(sp)
    800007c4:	00913c23          	sd	s1,24(sp)
    800007c8:	01213823          	sd	s2,16(sp)
    800007cc:	2e4010ef          	jal	ra,80001ab0 <strncmp>
    800007d0:	00050e63          	beqz	a0,800007ec <vm_test+0x48>
    800007d4:	00002597          	auipc	a1,0x2
    800007d8:	bc458593          	addi	a1,a1,-1084 # 80002398 <names+0x410>
    800007dc:	00002517          	auipc	a0,0x2
    800007e0:	bb450513          	addi	a0,a0,-1100 # 80002390 <names+0x408>
    800007e4:	250010ef          	jal	ra,80001a34 <strcmp>
    800007e8:	10051063          	bnez	a0,800008e8 <vm_test+0x144>
    800007ec:	00091917          	auipc	s2,0x91
    800007f0:	c4c90913          	addi	s2,s2,-948 # 80091438 <prot>
    800007f4:	00090513          	mv	a0,s2
    800007f8:	5c1000ef          	jal	ra,800015b8 <protect>
    800007fc:	01093603          	ld	a2,16(s2)
    80000800:	00893583          	ld	a1,8(s2)
    80000804:	00002517          	auipc	a0,0x2
    80000808:	bbc50513          	addi	a0,a0,-1092 # 800023c0 <names+0x438>
    8000080c:	651000ef          	jal	ra,8000165c <printf>
    80000810:	00893783          	ld	a5,8(s2)
    80000814:	01093483          	ld	s1,16(s2)
    80000818:	00095697          	auipc	a3,0x95
    8000081c:	c6868693          	addi	a3,a3,-920 # 80095480 <st>
    80000820:	0006b403          	ld	s0,0(a3)
    80000824:	40f484b3          	sub	s1,s1,a5
    80000828:	0014d493          	srli	s1,s1,0x1
    8000082c:	00092703          	lw	a4,0(s2)
    80000830:	00f484b3          	add	s1,s1,a5
    80000834:	00041c63          	bnez	s0,8000084c <vm_test+0xa8>
    80000838:	00010417          	auipc	s0,0x10
    8000083c:	5e843403          	ld	s0,1512(s0) # 80010e20 <heap>
    80000840:	02e477b3          	remu	a5,s0,a4
    80000844:	00078863          	beqz	a5,80000854 <vm_test+0xb0>
    80000848:	00140413          	addi	s0,s0,1
    8000084c:	02e477b3          	remu	a5,s0,a4
    80000850:	fe079ce3          	bnez	a5,80000848 <vm_test+0xa4>
    80000854:	00870733          	add	a4,a4,s0
    80000858:	00f00613          	li	a2,15
    8000085c:	00010597          	auipc	a1,0x10
    80000860:	5ac58593          	addi	a1,a1,1452 # 80010e08 <code>
    80000864:	00040513          	mv	a0,s0
    80000868:	00e6b023          	sd	a4,0(a3)
    8000086c:	2e0010ef          	jal	ra,80001b4c <memcpy>
    80000870:	00300693          	li	a3,3
    80000874:	00040613          	mv	a2,s0
    80000878:	00048593          	mv	a1,s1
    8000087c:	00091517          	auipc	a0,0x91
    80000880:	bbc50513          	addi	a0,a0,-1092 # 80091438 <prot>
    80000884:	591000ef          	jal	ra,80001614 <map>
    80000888:	00040613          	mv	a2,s0
    8000088c:	00048593          	mv	a1,s1
    80000890:	00002517          	auipc	a0,0x2
    80000894:	b5850513          	addi	a0,a0,-1192 # 800023e8 <names+0x460>
    80000898:	5c5000ef          	jal	ra,8000165c <printf>
    8000089c:	00048693          	mv	a3,s1
    800008a0:	00091597          	auipc	a1,0x91
    800008a4:	bb858593          	addi	a1,a1,-1096 # 80091458 <stack.0>
    800008a8:	00092617          	auipc	a2,0x92
    800008ac:	bb060613          	addi	a2,a2,-1104 # 80092458 <canvas>
    800008b0:	00091517          	auipc	a0,0x91
    800008b4:	b8850513          	addi	a0,a0,-1144 # 80091438 <prot>
    800008b8:	561000ef          	jal	ra,80001618 <ucontext>
    800008bc:	00050793          	mv	a5,a0
    800008c0:	00100513          	li	a0,1
    800008c4:	00095717          	auipc	a4,0x95
    800008c8:	bcf73223          	sd	a5,-1084(a4) # 80095488 <uctx>
    800008cc:	359000ef          	jal	ra,80001424 <iset>
    800008d0:	02013403          	ld	s0,32(sp)
    800008d4:	02813083          	ld	ra,40(sp)
    800008d8:	01813483          	ld	s1,24(sp)
    800008dc:	01013903          	ld	s2,16(sp)
    800008e0:	03010113          	addi	sp,sp,48
    800008e4:	3350006f          	j	80001418 <yield>
    800008e8:	02013403          	ld	s0,32(sp)
    800008ec:	02813083          	ld	ra,40(sp)
    800008f0:	01813483          	ld	s1,24(sp)
    800008f4:	01013903          	ld	s2,16(sp)
    800008f8:	00002517          	auipc	a0,0x2
    800008fc:	aa850513          	addi	a0,a0,-1368 # 800023a0 <names+0x418>
    80000900:	03010113          	addi	sp,sp,48
    80000904:	5590006f          	j	8000165c <printf>

0000000080000908 <redraw>:
    80000908:	f7010113          	addi	sp,sp,-144
    8000090c:	00010593          	mv	a1,sp
    80000910:	00900513          	li	a0,9
    80000914:	08113423          	sd	ra,136(sp)
    80000918:	08813023          	sd	s0,128(sp)
    8000091c:	07213823          	sd	s2,112(sp)
    80000920:	05513c23          	sd	s5,88(sp)
    80000924:	05613823          	sd	s6,80(sp)
    80000928:	06913c23          	sd	s1,120(sp)
    8000092c:	07313423          	sd	s3,104(sp)
    80000930:	07413023          	sd	s4,96(sp)
    80000934:	05713423          	sd	s7,72(sp)
    80000938:	05813023          	sd	s8,64(sp)
    8000093c:	03913c23          	sd	s9,56(sp)
    80000940:	03a13823          	sd	s10,48(sp)
    80000944:	03b13423          	sd	s11,40(sp)
    80000948:	7ac000ef          	jal	ra,800010f4 <ioe_read>
    8000094c:	00412783          	lw	a5,4(sp)
    80000950:	00010593          	mv	a1,sp
    80000954:	00900513          	li	a0,9
    80000958:	41f7d41b          	sraiw	s0,a5,0x1f
    8000095c:	01b4541b          	srliw	s0,s0,0x1b
    80000960:	00f4043b          	addw	s0,s0,a5
    80000964:	790000ef          	jal	ra,800010f4 <ioe_read>
    80000968:	00812783          	lw	a5,8(sp)
    8000096c:	40545a9b          	sraiw	s5,s0,0x5
    80000970:	40000713          	li	a4,1024
    80000974:	41f7d91b          	sraiw	s2,a5,0x1f
    80000978:	01b9591b          	srliw	s2,s2,0x1b
    8000097c:	00f9093b          	addw	s2,s2,a5
    80000980:	4059591b          	sraiw	s2,s2,0x5
    80000984:	032a8b3b          	mulw	s6,s5,s2
    80000988:	0f676c63          	bltu	a4,s6,80000a80 <redraw+0x178>
    8000098c:	fffb041b          	addiw	s0,s6,-1
    80000990:	02041793          	slli	a5,s0,0x20
    80000994:	01e7d413          	srli	s0,a5,0x1e
    80000998:	00093797          	auipc	a5,0x93
    8000099c:	ac478793          	addi	a5,a5,-1340 # 8009345c <color_buf+0x4>
    800009a0:	00092997          	auipc	s3,0x92
    800009a4:	b3898993          	addi	s3,s3,-1224 # 800924d8 <canvas+0x80>
    800009a8:	00093c17          	auipc	s8,0x93
    800009ac:	b30c0c13          	addi	s8,s8,-1232 # 800934d8 <color_buf+0x80>
    800009b0:	00093497          	auipc	s1,0x93
    800009b4:	aa848493          	addi	s1,s1,-1368 # 80093458 <color_buf>
    800009b8:	00f40433          	add	s0,s0,a5
    800009bc:	00000c93          	li	s9,0
    800009c0:	000a8b9b          	sext.w	s7,s5
    800009c4:	000c8a1b          	sext.w	s4,s9
    800009c8:	f8098d13          	addi	s10,s3,-128
    800009cc:	00000d93          	li	s11,0
    800009d0:	000b0c63          	beqz	s6,800009e8 <redraw+0xe0>
    800009d4:	000d2703          	lw	a4,0(s10)
    800009d8:	00048793          	mv	a5,s1
    800009dc:	00e7a023          	sw	a4,0(a5)
    800009e0:	00478793          	addi	a5,a5,4
    800009e4:	fe879ce3          	bne	a5,s0,800009dc <redraw+0xd4>
    800009e8:	004d0d13          	addi	s10,s10,4
    800009ec:	00010593          	mv	a1,sp
    800009f0:	00b00513          	li	a0,11
    800009f4:	01b12023          	sw	s11,0(sp)
    800009f8:	01412223          	sw	s4,4(sp)
    800009fc:	00913423          	sd	s1,8(sp)
    80000a00:	01512823          	sw	s5,16(sp)
    80000a04:	01212a23          	sw	s2,20(sp)
    80000a08:	00010c23          	sb	zero,24(sp)
    80000a0c:	017d8dbb          	addw	s11,s11,s7
    80000a10:	700000ef          	jal	ra,80001110 <ioe_write>
    80000a14:	fb3d1ee3          	bne	s10,s3,800009d0 <redraw+0xc8>
    80000a18:	080d0993          	addi	s3,s10,128
    80000a1c:	01990cbb          	addw	s9,s2,s9
    80000a20:	fb8992e3          	bne	s3,s8,800009c4 <redraw+0xbc>
    80000a24:	00010593          	mv	a1,sp
    80000a28:	00100793          	li	a5,1
    80000a2c:	00b00513          	li	a0,11
    80000a30:	00013023          	sd	zero,0(sp)
    80000a34:	00013423          	sd	zero,8(sp)
    80000a38:	00013823          	sd	zero,16(sp)
    80000a3c:	00f10c23          	sb	a5,24(sp)
    80000a40:	6d0000ef          	jal	ra,80001110 <ioe_write>
    80000a44:	08813083          	ld	ra,136(sp)
    80000a48:	08013403          	ld	s0,128(sp)
    80000a4c:	07813483          	ld	s1,120(sp)
    80000a50:	07013903          	ld	s2,112(sp)
    80000a54:	06813983          	ld	s3,104(sp)
    80000a58:	06013a03          	ld	s4,96(sp)
    80000a5c:	05813a83          	ld	s5,88(sp)
    80000a60:	05013b03          	ld	s6,80(sp)
    80000a64:	04813b83          	ld	s7,72(sp)
    80000a68:	04013c03          	ld	s8,64(sp)
    80000a6c:	03813c83          	ld	s9,56(sp)
    80000a70:	03013d03          	ld	s10,48(sp)
    80000a74:	02813d83          	ld	s11,40(sp)
    80000a78:	09010113          	addi	sp,sp,144
    80000a7c:	00008067          	ret
    80000a80:	01900613          	li	a2,25
    80000a84:	00002597          	auipc	a1,0x2
    80000a88:	99458593          	addi	a1,a1,-1644 # 80002418 <names+0x490>
    80000a8c:	00002517          	auipc	a0,0x2
    80000a90:	8dc50513          	addi	a0,a0,-1828 # 80002368 <names+0x3e0>
    80000a94:	3c9000ef          	jal	ra,8000165c <printf>
    80000a98:	00100513          	li	a0,1
    80000a9c:	53c000ef          	jal	ra,80000fd8 <halt>

0000000080000aa0 <update>:
    80000aa0:	00095617          	auipc	a2,0x95
    80000aa4:	9f060613          	addi	a2,a2,-1552 # 80095490 <tsc.2>
    80000aa8:	00062783          	lw	a5,0(a2)
    80000aac:	fe010113          	addi	sp,sp,-32
    80000ab0:	00813c23          	sd	s0,24(sp)
    80000ab4:	00913823          	sd	s1,16(sp)
    80000ab8:	01213423          	sd	s2,8(sp)
    80000abc:	01313023          	sd	s3,0(sp)
    80000ac0:	0017839b          	addiw	t2,a5,1
    80000ac4:	00094717          	auipc	a4,0x94
    80000ac8:	a1470713          	addi	a4,a4,-1516 # 800944d8 <used+0x80>
    80000acc:	00095697          	auipc	a3,0x95
    80000ad0:	a0c68693          	addi	a3,a3,-1524 # 800954d8 <vme_enable+0x28>
    80000ad4:	00762023          	sw	t2,0(a2)
    80000ad8:	f8070793          	addi	a5,a4,-128
    80000adc:	0007a023          	sw	zero,0(a5)
    80000ae0:	00478793          	addi	a5,a5,4
    80000ae4:	fef71ce3          	bne	a4,a5,80000adc <update+0x3c>
    80000ae8:	08070713          	addi	a4,a4,128
    80000aec:	fed716e3          	bne	a4,a3,80000ad8 <update+0x38>
    80000af0:	0ff3f693          	zext.b	a3,t2
    80000af4:	0016979b          	slliw	a5,a3,0x1
    80000af8:	00d787bb          	addw	a5,a5,a3
    80000afc:	0036971b          	slliw	a4,a3,0x3
    80000b00:	0017979b          	slliw	a5,a5,0x1
    80000b04:	40d7073b          	subw	a4,a4,a3
    80000b08:	0ff7f793          	zext.b	a5,a5
    80000b0c:	0ff77713          	zext.b	a4,a4
    80000b10:	0087171b          	slliw	a4,a4,0x8
    80000b14:	0107979b          	slliw	a5,a5,0x10
    80000b18:	00e7e7b3          	or	a5,a5,a4
    80000b1c:	0ff3f713          	zext.b	a4,t2
    80000b20:	00e7e7b3          	or	a5,a5,a4
    80000b24:	00092417          	auipc	s0,0x92
    80000b28:	93440413          	addi	s0,s0,-1740 # 80092458 <canvas>
    80000b2c:	00094e97          	auipc	t4,0x94
    80000b30:	92ce8e93          	addi	t4,t4,-1748 # 80094458 <used>
    80000b34:	00f42023          	sw	a5,0(s0)
    80000b38:	00100793          	li	a5,1
    80000b3c:	00fea023          	sw	a5,0(t4)
    80000b40:	00100713          	li	a4,1
    80000b44:	00000793          	li	a5,0
    80000b48:	00100f93          	li	t6,1
    80000b4c:	00000593          	li	a1,0
    80000b50:	00000913          	li	s2,0
    80000b54:	00000e13          	li	t3,0
    80000b58:	01f00f13          	li	t5,31
    80000b5c:	00002317          	auipc	t1,0x2
    80000b60:	91430313          	addi	t1,t1,-1772 # 80002470 <dx.1>
    80000b64:	00002897          	auipc	a7,0x2
    80000b68:	91c88893          	addi	a7,a7,-1764 # 80002480 <dy.0>
    80000b6c:	00100493          	li	s1,1
    80000b70:	40000293          	li	t0,1024
    80000b74:	00400693          	li	a3,4
    80000b78:	00fe063b          	addw	a2,t3,a5
    80000b7c:	00e9073b          	addw	a4,s2,a4
    80000b80:	00561793          	slli	a5,a2,0x5
    80000b84:	00e787b3          	add	a5,a5,a4
    80000b88:	00279793          	slli	a5,a5,0x2
    80000b8c:	00e66533          	or	a0,a2,a4
    80000b90:	00fe89b3          	add	s3,t4,a5
    80000b94:	00158813          	addi	a6,a1,1
    80000b98:	fff6869b          	addiw	a3,a3,-1
    80000b9c:	00af6663          	bltu	t5,a0,80000ba8 <update+0x108>
    80000ba0:	0009a503          	lw	a0,0(s3)
    80000ba4:	02050263          	beqz	a0,80000bc8 <update+0x128>
    80000ba8:	00387593          	andi	a1,a6,3
    80000bac:	00259793          	slli	a5,a1,0x2
    80000bb0:	00f30633          	add	a2,t1,a5
    80000bb4:	00f88733          	add	a4,a7,a5
    80000bb8:	06068063          	beqz	a3,80000c18 <update+0x178>
    80000bbc:	00062783          	lw	a5,0(a2)
    80000bc0:	00072703          	lw	a4,0(a4)
    80000bc4:	fb5ff06f          	j	80000b78 <update+0xd8>
    80000bc8:	401fd81b          	sraiw	a6,t6,0x1
    80000bcc:	0078083b          	addw	a6,a6,t2
    80000bd0:	0ff87e13          	zext.b	t3,a6
    80000bd4:	001e151b          	slliw	a0,t3,0x1
    80000bd8:	01c5053b          	addw	a0,a0,t3
    80000bdc:	003e169b          	slliw	a3,t3,0x3
    80000be0:	41c686bb          	subw	a3,a3,t3
    80000be4:	0015151b          	slliw	a0,a0,0x1
    80000be8:	0ff57513          	zext.b	a0,a0
    80000bec:	0ff6f693          	zext.b	a3,a3
    80000bf0:	0086969b          	slliw	a3,a3,0x8
    80000bf4:	0105151b          	slliw	a0,a0,0x10
    80000bf8:	00d56533          	or	a0,a0,a3
    80000bfc:	0ff87813          	zext.b	a6,a6
    80000c00:	00f406b3          	add	a3,s0,a5
    80000c04:	010567b3          	or	a5,a0,a6
    80000c08:	0099a023          	sw	s1,0(s3)
    80000c0c:	00f6a023          	sw	a5,0(a3)
    80000c10:	00070913          	mv	s2,a4
    80000c14:	00060e13          	mv	t3,a2
    80000c18:	001f8f9b          	addiw	t6,t6,1
    80000c1c:	005f8e63          	beq	t6,t0,80000c38 <update+0x198>
    80000c20:	00259793          	slli	a5,a1,0x2
    80000c24:	00f88733          	add	a4,a7,a5
    80000c28:	00f306b3          	add	a3,t1,a5
    80000c2c:	0006a783          	lw	a5,0(a3)
    80000c30:	00072703          	lw	a4,0(a4)
    80000c34:	f41ff06f          	j	80000b74 <update+0xd4>
    80000c38:	01813403          	ld	s0,24(sp)
    80000c3c:	01013483          	ld	s1,16(sp)
    80000c40:	00813903          	ld	s2,8(sp)
    80000c44:	00013983          	ld	s3,0(sp)
    80000c48:	02010113          	addi	sp,sp,32
    80000c4c:	00008067          	ret

0000000080000c50 <video_test>:
    80000c50:	fb010113          	addi	sp,sp,-80
    80000c54:	02913c23          	sd	s1,56(sp)
    80000c58:	03213823          	sd	s2,48(sp)
    80000c5c:	03313423          	sd	s3,40(sp)
    80000c60:	03413023          	sd	s4,32(sp)
    80000c64:	01513c23          	sd	s5,24(sp)
    80000c68:	01613823          	sd	s6,16(sp)
    80000c6c:	04113423          	sd	ra,72(sp)
    80000c70:	04813023          	sd	s0,64(sp)
    80000c74:	00000a13          	li	s4,0
    80000c78:	00000993          	li	s3,0
    80000c7c:	00000913          	li	s2,0
    80000c80:	3e800493          	li	s1,1000
    80000c84:	02100a93          	li	s5,33
    80000c88:	00001b17          	auipc	s6,0x1
    80000c8c:	7d8b0b13          	addi	s6,s6,2008 # 80002460 <names+0x4d8>
    80000c90:	00810593          	addi	a1,sp,8
    80000c94:	00600513          	li	a0,6
    80000c98:	45c000ef          	jal	ra,800010f4 <ioe_read>
    80000c9c:	00813403          	ld	s0,8(sp)
    80000ca0:	02945433          	divu	s0,s0,s1
    80000ca4:	412407b3          	sub	a5,s0,s2
    80000ca8:	04fae063          	bltu	s5,a5,80000ce8 <video_test+0x98>
    80000cac:	413407b3          	sub	a5,s0,s3
    80000cb0:	fef4f0e3          	bgeu	s1,a5,80000c90 <video_test+0x40>
    80000cb4:	000a0613          	mv	a2,s4
    80000cb8:	00040593          	mv	a1,s0
    80000cbc:	000b0513          	mv	a0,s6
    80000cc0:	19d000ef          	jal	ra,8000165c <printf>
    80000cc4:	00810593          	addi	a1,sp,8
    80000cc8:	00600513          	li	a0,6
    80000ccc:	428000ef          	jal	ra,800010f4 <ioe_read>
    80000cd0:	00040993          	mv	s3,s0
    80000cd4:	00813403          	ld	s0,8(sp)
    80000cd8:	00000a13          	li	s4,0
    80000cdc:	02945433          	divu	s0,s0,s1
    80000ce0:	412407b3          	sub	a5,s0,s2
    80000ce4:	fcfaf4e3          	bgeu	s5,a5,80000cac <video_test+0x5c>
    80000ce8:	db9ff0ef          	jal	ra,80000aa0 <update>
    80000cec:	001a0a1b          	addiw	s4,s4,1
    80000cf0:	c19ff0ef          	jal	ra,80000908 <redraw>
    80000cf4:	00040913          	mv	s2,s0
    80000cf8:	fb5ff06f          	j	80000cac <video_test+0x5c>

0000000080000cfc <simple_trap>:
    80000cfc:	00052783          	lw	a5,0(a0)
    80000d00:	ff010113          	addi	sp,sp,-16
    80000d04:	00813023          	sd	s0,0(sp)
    80000d08:	00113423          	sd	ra,8(sp)
    80000d0c:	00500713          	li	a4,5
    80000d10:	00058413          	mv	s0,a1
    80000d14:	02e78463          	beq	a5,a4,80000d3c <simple_trap+0x40>
    80000d18:	00600713          	li	a4,6
    80000d1c:	04e78c63          	beq	a5,a4,80000d74 <simple_trap+0x78>
    80000d20:	00100713          	li	a4,1
    80000d24:	02e78a63          	beq	a5,a4,80000d58 <simple_trap+0x5c>
    80000d28:	00813083          	ld	ra,8(sp)
    80000d2c:	00040513          	mv	a0,s0
    80000d30:	00013403          	ld	s0,0(sp)
    80000d34:	01010113          	addi	sp,sp,16
    80000d38:	00008067          	ret
    80000d3c:	07400513          	li	a0,116
    80000d40:	288000ef          	jal	ra,80000fc8 <putch>
    80000d44:	00813083          	ld	ra,8(sp)
    80000d48:	00040513          	mv	a0,s0
    80000d4c:	00013403          	ld	s0,0(sp)
    80000d50:	01010113          	addi	sp,sp,16
    80000d54:	00008067          	ret
    80000d58:	07900513          	li	a0,121
    80000d5c:	26c000ef          	jal	ra,80000fc8 <putch>
    80000d60:	00813083          	ld	ra,8(sp)
    80000d64:	00040513          	mv	a0,s0
    80000d68:	00013403          	ld	s0,0(sp)
    80000d6c:	01010113          	addi	sp,sp,16
    80000d70:	00008067          	ret
    80000d74:	06400513          	li	a0,100
    80000d78:	250000ef          	jal	ra,80000fc8 <putch>
    80000d7c:	00813083          	ld	ra,8(sp)
    80000d80:	00040513          	mv	a0,s0
    80000d84:	00013403          	ld	s0,0(sp)
    80000d88:	01010113          	addi	sp,sp,16
    80000d8c:	00008067          	ret

0000000080000d90 <hello_intr>:
    80000d90:	fe010113          	addi	sp,sp,-32
    80000d94:	00001517          	auipc	a0,0x1
    80000d98:	dec50513          	addi	a0,a0,-532 # 80001b80 <_etext>
    80000d9c:	00113c23          	sd	ra,24(sp)
    80000da0:	00813823          	sd	s0,16(sp)
    80000da4:	0b9000ef          	jal	ra,8000165c <printf>
    80000da8:	00001517          	auipc	a0,0x1
    80000dac:	6e850513          	addi	a0,a0,1768 # 80002490 <dy.0+0x10>
    80000db0:	0ad000ef          	jal	ra,8000165c <printf>
    80000db4:	00810593          	addi	a1,sp,8
    80000db8:	00700513          	li	a0,7
    80000dbc:	338000ef          	jal	ra,800010f4 <ioe_read>
    80000dc0:	00100513          	li	a0,1
    80000dc4:	00989437          	lui	s0,0x989
    80000dc8:	65c000ef          	jal	ra,80001424 <iset>
    80000dcc:	67f40413          	addi	s0,s0,1663 # 98967f <_entry_offset+0x98967f>
    80000dd0:	00012423          	sw	zero,8(sp)
    80000dd4:	00812783          	lw	a5,8(sp)
    80000dd8:	00f44c63          	blt	s0,a5,80000df0 <hello_intr+0x60>
    80000ddc:	00812783          	lw	a5,8(sp)
    80000de0:	0017879b          	addiw	a5,a5,1
    80000de4:	00f12423          	sw	a5,8(sp)
    80000de8:	00812783          	lw	a5,8(sp)
    80000dec:	fef458e3          	bge	s0,a5,80000ddc <hello_intr+0x4c>
    80000df0:	628000ef          	jal	ra,80001418 <yield>
    80000df4:	fddff06f          	j	80000dd0 <hello_intr+0x40>

0000000080000df8 <main>:
    80000df8:	fd010113          	addi	sp,sp,-48
    80000dfc:	02113423          	sd	ra,40(sp)
    80000e00:	02813023          	sd	s0,32(sp)
    80000e04:	00913c23          	sd	s1,24(sp)
    80000e08:	01213823          	sd	s2,16(sp)
    80000e0c:	01313423          	sd	s3,8(sp)
    80000e10:	00054783          	lbu	a5,0(a0)
    80000e14:	01500713          	li	a4,21
    80000e18:	f9f7879b          	addiw	a5,a5,-97
    80000e1c:	0ff7f793          	zext.b	a5,a5
    80000e20:	02f76063          	bltu	a4,a5,80000e40 <main+0x48>
    80000e24:	00001717          	auipc	a4,0x1
    80000e28:	6c070713          	addi	a4,a4,1728 # 800024e4 <dy.0+0x64>
    80000e2c:	00279793          	slli	a5,a5,0x2
    80000e30:	00e787b3          	add	a5,a5,a4
    80000e34:	0007a783          	lw	a5,0(a5)
    80000e38:	00e787b3          	add	a5,a5,a4
    80000e3c:	00078067          	jr	a5
    80000e40:	00001517          	auipc	a0,0x1
    80000e44:	67850513          	addi	a0,a0,1656 # 800024b8 <dy.0+0x38>
    80000e48:	015000ef          	jal	ra,8000165c <printf>
    80000e4c:	00001497          	auipc	s1,0x1
    80000e50:	7c448493          	addi	s1,s1,1988 # 80002610 <tests+0x8>
    80000e54:	00000413          	li	s0,0
    80000e58:	10000913          	li	s2,256
    80000e5c:	00001997          	auipc	s3,0x1
    80000e60:	67c98993          	addi	s3,s3,1660 # 800024d8 <dy.0+0x58>
    80000e64:	0014041b          	addiw	s0,s0,1
    80000e68:	03240c63          	beq	s0,s2,80000ea0 <main+0xa8>
    80000e6c:	0004b603          	ld	a2,0(s1)
    80000e70:	00060863          	beqz	a2,80000e80 <main+0x88>
    80000e74:	00040593          	mv	a1,s0
    80000e78:	00098513          	mv	a0,s3
    80000e7c:	7e0000ef          	jal	ra,8000165c <printf>
    80000e80:	00848493          	addi	s1,s1,8
    80000e84:	fe1ff06f          	j	80000e64 <main+0x6c>
    80000e88:	fffff797          	auipc	a5,0xfffff
    80000e8c:	56878793          	addi	a5,a5,1384 # 800003f0 <audio_test>
    80000e90:	00094717          	auipc	a4,0x94
    80000e94:	60f73423          	sd	a5,1544(a4) # 80095498 <entry>
    80000e98:	200000ef          	jal	ra,80001098 <ioe_init>
    80000e9c:	d54ff0ef          	jal	ra,800003f0 <audio_test>
    80000ea0:	02813083          	ld	ra,40(sp)
    80000ea4:	02013403          	ld	s0,32(sp)
    80000ea8:	01813483          	ld	s1,24(sp)
    80000eac:	01013903          	ld	s2,16(sp)
    80000eb0:	00813983          	ld	s3,8(sp)
    80000eb4:	00000513          	li	a0,0
    80000eb8:	03010113          	addi	sp,sp,48
    80000ebc:	00008067          	ret
    80000ec0:	fffff797          	auipc	a5,0xfffff
    80000ec4:	19c78793          	addi	a5,a5,412 # 8000005c <devscan>
    80000ec8:	00094717          	auipc	a4,0x94
    80000ecc:	5cf73823          	sd	a5,1488(a4) # 80095498 <entry>
    80000ed0:	1c8000ef          	jal	ra,80001098 <ioe_init>
    80000ed4:	988ff0ef          	jal	ra,8000005c <devscan>
    80000ed8:	fc9ff06f          	j	80000ea0 <main+0xa8>
    80000edc:	fffff797          	auipc	a5,0xfffff
    80000ee0:	13478793          	addi	a5,a5,308 # 80000010 <hello>
    80000ee4:	00094717          	auipc	a4,0x94
    80000ee8:	5af73a23          	sd	a5,1460(a4) # 80095498 <entry>
    80000eec:	924ff0ef          	jal	ra,80000010 <hello>
    80000ef0:	fb1ff06f          	j	80000ea0 <main+0xa8>
    80000ef4:	00000797          	auipc	a5,0x0
    80000ef8:	e9c78793          	addi	a5,a5,-356 # 80000d90 <hello_intr>
    80000efc:	00094717          	auipc	a4,0x94
    80000f00:	58f73e23          	sd	a5,1436(a4) # 80095498 <entry>
    80000f04:	194000ef          	jal	ra,80001098 <ioe_init>
    80000f08:	00000517          	auipc	a0,0x0
    80000f0c:	df450513          	addi	a0,a0,-524 # 80000cfc <simple_trap>
    80000f10:	4e8000ef          	jal	ra,800013f8 <cte_init>
    80000f14:	e7dff0ef          	jal	ra,80000d90 <hello_intr>
    80000f18:	f89ff06f          	j	80000ea0 <main+0xa8>
    80000f1c:	fffff797          	auipc	a5,0xfffff
    80000f20:	3b078793          	addi	a5,a5,944 # 800002cc <keyboard_test>
    80000f24:	00094717          	auipc	a4,0x94
    80000f28:	56f73a23          	sd	a5,1396(a4) # 80095498 <entry>
    80000f2c:	16c000ef          	jal	ra,80001098 <ioe_init>
    80000f30:	b9cff0ef          	jal	ra,800002cc <keyboard_test>
    80000f34:	f6dff06f          	j	80000ea0 <main+0xa8>
    80000f38:	fffff797          	auipc	a5,0xfffff
    80000f3c:	49078793          	addi	a5,a5,1168 # 800003c8 <mp_print>
    80000f40:	00078513          	mv	a0,a5
    80000f44:	00094717          	auipc	a4,0x94
    80000f48:	54f73a23          	sd	a5,1364(a4) # 80095498 <entry>
    80000f4c:	37c000ef          	jal	ra,800012c8 <mpe_init>
    80000f50:	c78ff0ef          	jal	ra,800003c8 <mp_print>
    80000f54:	f4dff06f          	j	80000ea0 <main+0xa8>
    80000f58:	00000797          	auipc	a5,0x0
    80000f5c:	84c78793          	addi	a5,a5,-1972 # 800007a4 <vm_test>
    80000f60:	fffff517          	auipc	a0,0xfffff
    80000f64:	6cc50513          	addi	a0,a0,1740 # 8000062c <vm_handler>
    80000f68:	00094717          	auipc	a4,0x94
    80000f6c:	52f73823          	sd	a5,1328(a4) # 80095498 <entry>
    80000f70:	488000ef          	jal	ra,800013f8 <cte_init>
    80000f74:	fffff597          	auipc	a1,0xfffff
    80000f78:	6b458593          	addi	a1,a1,1716 # 80000628 <simple_pgfree>
    80000f7c:	fffff517          	auipc	a0,0xfffff
    80000f80:	66850513          	addi	a0,a0,1640 # 800005e4 <simple_pgalloc>
    80000f84:	5e0000ef          	jal	ra,80001564 <vme_init>
    80000f88:	81dff0ef          	jal	ra,800007a4 <vm_test>
    80000f8c:	f15ff06f          	j	80000ea0 <main+0xa8>
    80000f90:	fffff797          	auipc	a5,0xfffff
    80000f94:	59478793          	addi	a5,a5,1428 # 80000524 <rtc_test>
    80000f98:	00094717          	auipc	a4,0x94
    80000f9c:	50f73023          	sd	a5,1280(a4) # 80095498 <entry>
    80000fa0:	0f8000ef          	jal	ra,80001098 <ioe_init>
    80000fa4:	d80ff0ef          	jal	ra,80000524 <rtc_test>
    80000fa8:	ef9ff06f          	j	80000ea0 <main+0xa8>
    80000fac:	00000797          	auipc	a5,0x0
    80000fb0:	ca478793          	addi	a5,a5,-860 # 80000c50 <video_test>
    80000fb4:	00094717          	auipc	a4,0x94
    80000fb8:	4ef73223          	sd	a5,1252(a4) # 80095498 <entry>
    80000fbc:	0dc000ef          	jal	ra,80001098 <ioe_init>
    80000fc0:	c91ff0ef          	jal	ra,80000c50 <video_test>
    80000fc4:	eddff06f          	j	80000ea0 <main+0xa8>

0000000080000fc8 <putch>:
    80000fc8:	00500793          	li	a5,5
    80000fcc:	01d79793          	slli	a5,a5,0x1d
    80000fd0:	3ea78c23          	sb	a0,1016(a5)
    80000fd4:	00008067          	ret

0000000080000fd8 <halt>:
    80000fd8:	00050513          	mv	a0,a0
    80000fdc:	00100073          	ebreak
    80000fe0:	0000006f          	j	80000fe0 <halt+0x8>

0000000080000fe4 <_trm_init>:
    80000fe4:	ff010113          	addi	sp,sp,-16
    80000fe8:	00002517          	auipc	a0,0x2
    80000fec:	00850513          	addi	a0,a0,8 # 80002ff0 <mainargs>
    80000ff0:	00113423          	sd	ra,8(sp)
    80000ff4:	e05ff0ef          	jal	ra,80000df8 <main>
    80000ff8:	00050513          	mv	a0,a0
    80000ffc:	00100073          	ebreak
    80001000:	0000006f          	j	80001000 <_trm_init+0x1c>

0000000080001004 <__am_timer_config>:
    80001004:	00100793          	li	a5,1
    80001008:	00f50023          	sb	a5,0(a0)
    8000100c:	00f500a3          	sb	a5,1(a0)
    80001010:	00008067          	ret

0000000080001014 <__am_input_config>:
    80001014:	00100793          	li	a5,1
    80001018:	00f50023          	sb	a5,0(a0)
    8000101c:	00008067          	ret

0000000080001020 <__am_uart_config>:
    80001020:	00050023          	sb	zero,0(a0)
    80001024:	00008067          	ret

0000000080001028 <__am_net_config>:
    80001028:	00050023          	sb	zero,0(a0)
    8000102c:	00008067          	ret

0000000080001030 <fail>:
    80001030:	ff010113          	addi	sp,sp,-16
    80001034:	00813023          	sd	s0,0(sp)
    80001038:	00113423          	sd	ra,8(sp)
    8000103c:	00002417          	auipc	s0,0x2
    80001040:	dcc40413          	addi	s0,s0,-564 # 80002e08 <tests+0x800>
    80001044:	04100513          	li	a0,65
    80001048:	00140413          	addi	s0,s0,1
    8000104c:	f7dff0ef          	jal	ra,80000fc8 <putch>
    80001050:	00044503          	lbu	a0,0(s0)
    80001054:	fe051ae3          	bnez	a0,80001048 <fail+0x18>
    80001058:	00002417          	auipc	s0,0x2
    8000105c:	dc040413          	addi	s0,s0,-576 # 80002e18 <tests+0x810>
    80001060:	06100513          	li	a0,97
    80001064:	00140413          	addi	s0,s0,1
    80001068:	f61ff0ef          	jal	ra,80000fc8 <putch>
    8000106c:	00044503          	lbu	a0,0(s0)
    80001070:	fe051ae3          	bnez	a0,80001064 <fail+0x34>
    80001074:	00002417          	auipc	s0,0x2
    80001078:	dc440413          	addi	s0,s0,-572 # 80002e38 <tests+0x830>
    8000107c:	02000513          	li	a0,32
    80001080:	00140413          	addi	s0,s0,1
    80001084:	f45ff0ef          	jal	ra,80000fc8 <putch>
    80001088:	00044503          	lbu	a0,0(s0)
    8000108c:	fe051ae3          	bnez	a0,80001080 <fail+0x50>
    80001090:	00100513          	li	a0,1
    80001094:	f45ff0ef          	jal	ra,80000fd8 <halt>

0000000080001098 <ioe_init>:
    80001098:	ff010113          	addi	sp,sp,-16
    8000109c:	00113423          	sd	ra,8(sp)
    800010a0:	00010797          	auipc	a5,0x10
    800010a4:	d9078793          	addi	a5,a5,-624 # 80010e30 <lut>
    800010a8:	00010697          	auipc	a3,0x10
    800010ac:	18868693          	addi	a3,a3,392 # 80011230 <next>
    800010b0:	00000617          	auipc	a2,0x0
    800010b4:	f8060613          	addi	a2,a2,-128 # 80001030 <fail>
    800010b8:	00c0006f          	j	800010c4 <ioe_init+0x2c>
    800010bc:	00878793          	addi	a5,a5,8
    800010c0:	00d78c63          	beq	a5,a3,800010d8 <ioe_init+0x40>
    800010c4:	0007b703          	ld	a4,0(a5)
    800010c8:	fe071ae3          	bnez	a4,800010bc <ioe_init+0x24>
    800010cc:	00c7b023          	sd	a2,0(a5)
    800010d0:	00878793          	addi	a5,a5,8
    800010d4:	fed798e3          	bne	a5,a3,800010c4 <ioe_init+0x2c>
    800010d8:	0cc000ef          	jal	ra,800011a4 <__am_gpu_init>
    800010dc:	050000ef          	jal	ra,8000112c <__am_timer_init>
    800010e0:	1bc000ef          	jal	ra,8000129c <__am_audio_init>
    800010e4:	00813083          	ld	ra,8(sp)
    800010e8:	00100513          	li	a0,1
    800010ec:	01010113          	addi	sp,sp,16
    800010f0:	00008067          	ret

00000000800010f4 <ioe_read>:
    800010f4:	00351513          	slli	a0,a0,0x3
    800010f8:	00010797          	auipc	a5,0x10
    800010fc:	d3878793          	addi	a5,a5,-712 # 80010e30 <lut>
    80001100:	00a787b3          	add	a5,a5,a0
    80001104:	0007b783          	ld	a5,0(a5)
    80001108:	00058513          	mv	a0,a1
    8000110c:	00078067          	jr	a5

0000000080001110 <ioe_write>:
    80001110:	00351513          	slli	a0,a0,0x3
    80001114:	00010797          	auipc	a5,0x10
    80001118:	d1c78793          	addi	a5,a5,-740 # 80010e30 <lut>
    8000111c:	00a787b3          	add	a5,a5,a0
    80001120:	0007b783          	ld	a5,0(a5)
    80001124:	00058513          	mv	a0,a1
    80001128:	00078067          	jr	a5

000000008000112c <__am_timer_init>:
    8000112c:	00008067          	ret

0000000080001130 <__am_timer_uptime>:
    80001130:	00500713          	li	a4,5
    80001134:	01d71713          	slli	a4,a4,0x1d
    80001138:	04c72783          	lw	a5,76(a4)
    8000113c:	04872703          	lw	a4,72(a4)
    80001140:	02079793          	slli	a5,a5,0x20
    80001144:	02071713          	slli	a4,a4,0x20
    80001148:	02075713          	srli	a4,a4,0x20
    8000114c:	00e787b3          	add	a5,a5,a4
    80001150:	00f53023          	sd	a5,0(a0)
    80001154:	00008067          	ret

0000000080001158 <__am_timer_rtc>:
    80001158:	76c00793          	li	a5,1900
    8000115c:	00052a23          	sw	zero,20(a0)
    80001160:	00052823          	sw	zero,16(a0)
    80001164:	00052623          	sw	zero,12(a0)
    80001168:	00052423          	sw	zero,8(a0)
    8000116c:	00052223          	sw	zero,4(a0)
    80001170:	00f52023          	sw	a5,0(a0)
    80001174:	00008067          	ret

0000000080001178 <__am_input_keybrd>:
    80001178:	00500793          	li	a5,5
    8000117c:	01d79793          	slli	a5,a5,0x1d
    80001180:	0607a783          	lw	a5,96(a5)
    80001184:	ffff86b7          	lui	a3,0xffff8
    80001188:	fff68693          	addi	a3,a3,-1 # ffffffffffff7fff <_end+0xffffffff7ff59fff>
    8000118c:	40f7d71b          	sraiw	a4,a5,0xf
    80001190:	00177713          	andi	a4,a4,1
    80001194:	00d7f7b3          	and	a5,a5,a3
    80001198:	00e50023          	sb	a4,0(a0)
    8000119c:	00f52223          	sw	a5,4(a0)
    800011a0:	00008067          	ret

00000000800011a4 <__am_gpu_init>:
    800011a4:	00008067          	ret

00000000800011a8 <__am_gpu_config>:
    800011a8:	00500793          	li	a5,5
    800011ac:	01d79793          	slli	a5,a5,0x1d
    800011b0:	1007a703          	lw	a4,256(a5)
    800011b4:	1007a783          	lw	a5,256(a5)
    800011b8:	00100693          	li	a3,1
    800011bc:	0107571b          	srliw	a4,a4,0x10
    800011c0:	03079793          	slli	a5,a5,0x30
    800011c4:	0307d793          	srli	a5,a5,0x30
    800011c8:	00d51023          	sh	a3,0(a0)
    800011cc:	00e52223          	sw	a4,4(a0)
    800011d0:	00f52423          	sw	a5,8(a0)
    800011d4:	00052623          	sw	zero,12(a0)
    800011d8:	00008067          	ret

00000000800011dc <__am_gpu_fbdraw>:
    800011dc:	00452e83          	lw	t4,4(a0)
    800011e0:	01452283          	lw	t0,20(a0)
    800011e4:	ff010113          	addi	sp,sp,-16
    800011e8:	00813423          	sd	s0,8(sp)
    800011ec:	01d282bb          	addw	t0,t0,t4
    800011f0:	00052f83          	lw	t6,0(a0)
    800011f4:	01052383          	lw	t2,16(a0)
    800011f8:	00853403          	ld	s0,8(a0)
    800011fc:	065ed863          	bge	t4,t0,8000126c <__am_gpu_fbdraw+0x90>
    80001200:	00500313          	li	t1,5
    80001204:	0a100893          	li	a7,161
    80001208:	007f85bb          	addw	a1,t6,t2
    8000120c:	00000f13          	li	t5,0
    80001210:	0003839b          	sext.w	t2,t2
    80001214:	01d31313          	slli	t1,t1,0x1d
    80001218:	01889893          	slli	a7,a7,0x18
    8000121c:	04bfd263          	bge	t6,a1,80001260 <__am_gpu_fbdraw+0x84>
    80001220:	002f1693          	slli	a3,t5,0x2
    80001224:	000e881b          	sext.w	a6,t4
    80001228:	00d406b3          	add	a3,s0,a3
    8000122c:	000f8713          	mv	a4,t6
    80001230:	10032783          	lw	a5,256(t1)
    80001234:	0006a603          	lw	a2,0(a3)
    80001238:	00468693          	addi	a3,a3,4
    8000123c:	0107d79b          	srliw	a5,a5,0x10
    80001240:	030787bb          	mulw	a5,a5,a6
    80001244:	00e787bb          	addw	a5,a5,a4
    80001248:	02079e13          	slli	t3,a5,0x20
    8000124c:	01ee5793          	srli	a5,t3,0x1e
    80001250:	00f887b3          	add	a5,a7,a5
    80001254:	00c7a023          	sw	a2,0(a5)
    80001258:	0017071b          	addiw	a4,a4,1
    8000125c:	fcb71ae3          	bne	a4,a1,80001230 <__am_gpu_fbdraw+0x54>
    80001260:	001e8e9b          	addiw	t4,t4,1
    80001264:	007f0f3b          	addw	t5,t5,t2
    80001268:	fa5e9ae3          	bne	t4,t0,8000121c <__am_gpu_fbdraw+0x40>
    8000126c:	01854783          	lbu	a5,24(a0)
    80001270:	00078a63          	beqz	a5,80001284 <__am_gpu_fbdraw+0xa8>
    80001274:	00500793          	li	a5,5
    80001278:	01d79793          	slli	a5,a5,0x1d
    8000127c:	00100713          	li	a4,1
    80001280:	10e7a223          	sw	a4,260(a5)
    80001284:	00813403          	ld	s0,8(sp)
    80001288:	01010113          	addi	sp,sp,16
    8000128c:	00008067          	ret

0000000080001290 <__am_gpu_status>:
    80001290:	00100793          	li	a5,1
    80001294:	00f50023          	sb	a5,0(a0)
    80001298:	00008067          	ret

000000008000129c <__am_audio_init>:
    8000129c:	00008067          	ret

00000000800012a0 <__am_audio_config>:
    800012a0:	00050023          	sb	zero,0(a0)
    800012a4:	00008067          	ret

00000000800012a8 <__am_audio_ctrl>:
    800012a8:	00008067          	ret

00000000800012ac <__am_audio_status>:
    800012ac:	00052023          	sw	zero,0(a0)
    800012b0:	00008067          	ret

00000000800012b4 <__am_audio_play>:
    800012b4:	00008067          	ret

00000000800012b8 <__am_disk_config>:
    800012b8:	00050023          	sb	zero,0(a0)
    800012bc:	00008067          	ret

00000000800012c0 <__am_disk_status>:
    800012c0:	00008067          	ret

00000000800012c4 <__am_disk_blkio>:
    800012c4:	00008067          	ret

00000000800012c8 <mpe_init>:
    800012c8:	ff010113          	addi	sp,sp,-16
    800012cc:	00813023          	sd	s0,0(sp)
    800012d0:	00113423          	sd	ra,8(sp)
    800012d4:	000500e7          	jalr	a0
    800012d8:	00002417          	auipc	s0,0x2
    800012dc:	b3040413          	addi	s0,s0,-1232 # 80002e08 <tests+0x800>
    800012e0:	04100513          	li	a0,65
    800012e4:	00140413          	addi	s0,s0,1
    800012e8:	ce1ff0ef          	jal	ra,80000fc8 <putch>
    800012ec:	00044503          	lbu	a0,0(s0)
    800012f0:	fe051ae3          	bnez	a0,800012e4 <mpe_init+0x1c>
    800012f4:	00002417          	auipc	s0,0x2
    800012f8:	b9c40413          	addi	s0,s0,-1124 # 80002e90 <tests+0x888>
    800012fc:	04d00513          	li	a0,77
    80001300:	00140413          	addi	s0,s0,1
    80001304:	cc5ff0ef          	jal	ra,80000fc8 <putch>
    80001308:	00044503          	lbu	a0,0(s0)
    8000130c:	fe051ae3          	bnez	a0,80001300 <mpe_init+0x38>
    80001310:	00002417          	auipc	s0,0x2
    80001314:	b9840413          	addi	s0,s0,-1128 # 80002ea8 <tests+0x8a0>
    80001318:	02000513          	li	a0,32
    8000131c:	00140413          	addi	s0,s0,1
    80001320:	ca9ff0ef          	jal	ra,80000fc8 <putch>
    80001324:	00044503          	lbu	a0,0(s0)
    80001328:	fe051ae3          	bnez	a0,8000131c <mpe_init+0x54>
    8000132c:	00100513          	li	a0,1
    80001330:	ca9ff0ef          	jal	ra,80000fd8 <halt>

0000000080001334 <cpu_current>:
    80001334:	00000513          	li	a0,0
    80001338:	00008067          	ret

000000008000133c <__am_irq_handle>:
    8000133c:	00094717          	auipc	a4,0x94
    80001340:	16473703          	ld	a4,356(a4) # 800954a0 <user_handler>
    80001344:	00050593          	mv	a1,a0
    80001348:	08070263          	beqz	a4,800013cc <__am_irq_handle+0x90>
    8000134c:	11053783          	ld	a5,272(a0)
    80001350:	fb010113          	addi	sp,sp,-80
    80001354:	10053603          	ld	a2,256(a0)
    80001358:	00478793          	addi	a5,a5,4
    8000135c:	04113423          	sd	ra,72(sp)
    80001360:	10f53823          	sd	a5,272(a0)
    80001364:	02013023          	sd	zero,32(sp)
    80001368:	02013423          	sd	zero,40(sp)
    8000136c:	02013823          	sd	zero,48(sp)
    80001370:	02013c23          	sd	zero,56(sp)
    80001374:	00b00693          	li	a3,11
    80001378:	00200793          	li	a5,2
    8000137c:	00d60a63          	beq	a2,a3,80001390 <__am_irq_handle+0x54>
    80001380:	08853603          	ld	a2,136(a0)
    80001384:	fff00693          	li	a3,-1
    80001388:	00400793          	li	a5,4
    8000138c:	04d60263          	beq	a2,a3,800013d0 <__am_irq_handle+0x94>
    80001390:	02f12023          	sw	a5,32(sp)
    80001394:	02013783          	ld	a5,32(sp)
    80001398:	00010513          	mv	a0,sp
    8000139c:	00f13023          	sd	a5,0(sp)
    800013a0:	02813783          	ld	a5,40(sp)
    800013a4:	00f13423          	sd	a5,8(sp)
    800013a8:	03013783          	ld	a5,48(sp)
    800013ac:	00f13823          	sd	a5,16(sp)
    800013b0:	03813783          	ld	a5,56(sp)
    800013b4:	00f13c23          	sd	a5,24(sp)
    800013b8:	000700e7          	jalr	a4
    800013bc:	00050e63          	beqz	a0,800013d8 <__am_irq_handle+0x9c>
    800013c0:	04813083          	ld	ra,72(sp)
    800013c4:	05010113          	addi	sp,sp,80
    800013c8:	00008067          	ret
    800013cc:	00008067          	ret
    800013d0:	00100793          	li	a5,1
    800013d4:	fbdff06f          	j	80001390 <__am_irq_handle+0x54>
    800013d8:	00f00613          	li	a2,15
    800013dc:	00002597          	auipc	a1,0x2
    800013e0:	b1c58593          	addi	a1,a1,-1252 # 80002ef8 <tests+0x8f0>
    800013e4:	00001517          	auipc	a0,0x1
    800013e8:	f8450513          	addi	a0,a0,-124 # 80002368 <names+0x3e0>
    800013ec:	270000ef          	jal	ra,8000165c <printf>
    800013f0:	00100513          	li	a0,1
    800013f4:	be5ff0ef          	jal	ra,80000fd8 <halt>

00000000800013f8 <cte_init>:
    800013f8:	00050793          	mv	a5,a0
    800013fc:	00000717          	auipc	a4,0x0
    80001400:	02c70713          	addi	a4,a4,44 # 80001428 <__am_asm_trap>
    80001404:	30571073          	csrw	mtvec,a4
    80001408:	00100513          	li	a0,1
    8000140c:	00094717          	auipc	a4,0x94
    80001410:	08f73a23          	sd	a5,148(a4) # 800954a0 <user_handler>
    80001414:	00008067          	ret

0000000080001418 <yield>:
    80001418:	fff00893          	li	a7,-1
    8000141c:	00000073          	ecall
    80001420:	00008067          	ret

0000000080001424 <iset>:
    80001424:	00008067          	ret

0000000080001428 <__am_asm_trap>:
    80001428:	ee010113          	addi	sp,sp,-288
    8000142c:	00113423          	sd	ra,8(sp)
    80001430:	00313c23          	sd	gp,24(sp)
    80001434:	02413023          	sd	tp,32(sp)
    80001438:	02513423          	sd	t0,40(sp)
    8000143c:	02613823          	sd	t1,48(sp)
    80001440:	02713c23          	sd	t2,56(sp)
    80001444:	04813023          	sd	s0,64(sp)
    80001448:	04913423          	sd	s1,72(sp)
    8000144c:	04a13823          	sd	a0,80(sp)
    80001450:	04b13c23          	sd	a1,88(sp)
    80001454:	06c13023          	sd	a2,96(sp)
    80001458:	06d13423          	sd	a3,104(sp)
    8000145c:	06e13823          	sd	a4,112(sp)
    80001460:	06f13c23          	sd	a5,120(sp)
    80001464:	09013023          	sd	a6,128(sp)
    80001468:	09113423          	sd	a7,136(sp)
    8000146c:	09213823          	sd	s2,144(sp)
    80001470:	09313c23          	sd	s3,152(sp)
    80001474:	0b413023          	sd	s4,160(sp)
    80001478:	0b513423          	sd	s5,168(sp)
    8000147c:	0b613823          	sd	s6,176(sp)
    80001480:	0b713c23          	sd	s7,184(sp)
    80001484:	0d813023          	sd	s8,192(sp)
    80001488:	0d913423          	sd	s9,200(sp)
    8000148c:	0da13823          	sd	s10,208(sp)
    80001490:	0db13c23          	sd	s11,216(sp)
    80001494:	0fc13023          	sd	t3,224(sp)
    80001498:	0fd13423          	sd	t4,232(sp)
    8000149c:	0fe13823          	sd	t5,240(sp)
    800014a0:	0ff13c23          	sd	t6,248(sp)
    800014a4:	342022f3          	csrr	t0,mcause
    800014a8:	30002373          	csrr	t1,mstatus
    800014ac:	341023f3          	csrr	t2,mepc
    800014b0:	10513023          	sd	t0,256(sp)
    800014b4:	10613423          	sd	t1,264(sp)
    800014b8:	10713823          	sd	t2,272(sp)
    800014bc:	00020537          	lui	a0,0x20
    800014c0:	00a36333          	or	t1,t1,a0
    800014c4:	30031073          	csrw	mstatus,t1
    800014c8:	00010513          	mv	a0,sp
    800014cc:	e71ff0ef          	jal	ra,8000133c <__am_irq_handle>
    800014d0:	10813303          	ld	t1,264(sp)
    800014d4:	11013383          	ld	t2,272(sp)
    800014d8:	30031073          	csrw	mstatus,t1
    800014dc:	34139073          	csrw	mepc,t2
    800014e0:	00813083          	ld	ra,8(sp)
    800014e4:	01813183          	ld	gp,24(sp)
    800014e8:	02013203          	ld	tp,32(sp)
    800014ec:	02813283          	ld	t0,40(sp)
    800014f0:	03013303          	ld	t1,48(sp)
    800014f4:	03813383          	ld	t2,56(sp)
    800014f8:	04013403          	ld	s0,64(sp)
    800014fc:	04813483          	ld	s1,72(sp)
    80001500:	05013503          	ld	a0,80(sp)
    80001504:	05813583          	ld	a1,88(sp)
    80001508:	06013603          	ld	a2,96(sp)
    8000150c:	06813683          	ld	a3,104(sp)
    80001510:	07013703          	ld	a4,112(sp)
    80001514:	07813783          	ld	a5,120(sp)
    80001518:	08013803          	ld	a6,128(sp)
    8000151c:	08813883          	ld	a7,136(sp)
    80001520:	09013903          	ld	s2,144(sp)
    80001524:	09813983          	ld	s3,152(sp)
    80001528:	0a013a03          	ld	s4,160(sp)
    8000152c:	0a813a83          	ld	s5,168(sp)
    80001530:	0b013b03          	ld	s6,176(sp)
    80001534:	0b813b83          	ld	s7,184(sp)
    80001538:	0c013c03          	ld	s8,192(sp)
    8000153c:	0c813c83          	ld	s9,200(sp)
    80001540:	0d013d03          	ld	s10,208(sp)
    80001544:	0d813d83          	ld	s11,216(sp)
    80001548:	0e013e03          	ld	t3,224(sp)
    8000154c:	0e813e83          	ld	t4,232(sp)
    80001550:	0f013f03          	ld	t5,240(sp)
    80001554:	0f813f83          	ld	t6,248(sp)
    80001558:	12010113          	addi	sp,sp,288
    8000155c:	30200073          	mret
    80001560:	0000                	.2byte	0x0
	...

0000000080001564 <vme_init>:
    80001564:	ff010113          	addi	sp,sp,-16
    80001568:	00113423          	sd	ra,8(sp)
    8000156c:	00050793          	mv	a5,a0
    80001570:	00001537          	lui	a0,0x1
    80001574:	00094717          	auipc	a4,0x94
    80001578:	f2f73a23          	sd	a5,-204(a4) # 800954a8 <pgalloc_usr>
    8000157c:	000780e7          	jalr	a5
    80001580:	00094717          	auipc	a4,0x94
    80001584:	eea73823          	sd	a0,-272(a4) # 80095470 <kas+0x18>
    80001588:	fff00713          	li	a4,-1
    8000158c:	00c55793          	srli	a5,a0,0xc
    80001590:	03f71713          	slli	a4,a4,0x3f
    80001594:	00e7e7b3          	or	a5,a5,a4
    80001598:	18079073          	csrw	satp,a5
    8000159c:	00813083          	ld	ra,8(sp)
    800015a0:	00100793          	li	a5,1
    800015a4:	00094717          	auipc	a4,0x94
    800015a8:	f0f72623          	sw	a5,-244(a4) # 800954b0 <vme_enable>
    800015ac:	00100513          	li	a0,1
    800015b0:	01010113          	addi	sp,sp,16
    800015b4:	00008067          	ret

00000000800015b8 <protect>:
    800015b8:	ff010113          	addi	sp,sp,-16
    800015bc:	00813023          	sd	s0,0(sp)
    800015c0:	00113423          	sd	ra,8(sp)
    800015c4:	00050413          	mv	s0,a0
    800015c8:	00094797          	auipc	a5,0x94
    800015cc:	ee07b783          	ld	a5,-288(a5) # 800954a8 <pgalloc_usr>
    800015d0:	00001537          	lui	a0,0x1
    800015d4:	000780e7          	jalr	a5
    800015d8:	400007b7          	lui	a5,0x40000
    800015dc:	00f43423          	sd	a5,8(s0)
    800015e0:	00100793          	li	a5,1
    800015e4:	01f79793          	slli	a5,a5,0x1f
    800015e8:	00f43823          	sd	a5,16(s0)
    800015ec:	000017b7          	lui	a5,0x1
    800015f0:	00a43c23          	sd	a0,24(s0)
    800015f4:	00f42023          	sw	a5,0(s0)
    800015f8:	00013403          	ld	s0,0(sp)
    800015fc:	00813083          	ld	ra,8(sp)
    80001600:	00094597          	auipc	a1,0x94
    80001604:	e705b583          	ld	a1,-400(a1) # 80095470 <kas+0x18>
    80001608:	00001637          	lui	a2,0x1
    8000160c:	01010113          	addi	sp,sp,16
    80001610:	53c0006f          	j	80001b4c <memcpy>

0000000080001614 <map>:
    80001614:	00008067          	ret

0000000080001618 <ucontext>:
    80001618:	ff010113          	addi	sp,sp,-16
    8000161c:	00000513          	li	a0,0
    80001620:	01010113          	addi	sp,sp,16
    80001624:	00008067          	ret

0000000080001628 <rand>:
    80001628:	00010697          	auipc	a3,0x10
    8000162c:	c0868693          	addi	a3,a3,-1016 # 80011230 <next>
    80001630:	0006b783          	ld	a5,0(a3)
    80001634:	41c65737          	lui	a4,0x41c65
    80001638:	e6d70713          	addi	a4,a4,-403 # 41c64e6d <_entry_offset+0x41c64e6d>
    8000163c:	02e787b3          	mul	a5,a5,a4
    80001640:	00003737          	lui	a4,0x3
    80001644:	03970713          	addi	a4,a4,57 # 3039 <_entry_offset+0x3039>
    80001648:	00e787b3          	add	a5,a5,a4
    8000164c:	02179513          	slli	a0,a5,0x21
    80001650:	00f6b023          	sd	a5,0(a3)
    80001654:	03155513          	srli	a0,a0,0x31
    80001658:	00008067          	ret

000000008000165c <printf>:
    8000165c:	f6010113          	addi	sp,sp,-160
    80001660:	04113c23          	sd	ra,88(sp)
    80001664:	04813823          	sd	s0,80(sp)
    80001668:	04913423          	sd	s1,72(sp)
    8000166c:	05213023          	sd	s2,64(sp)
    80001670:	03313c23          	sd	s3,56(sp)
    80001674:	03413823          	sd	s4,48(sp)
    80001678:	03513423          	sd	s5,40(sp)
    8000167c:	03613023          	sd	s6,32(sp)
    80001680:	01713c23          	sd	s7,24(sp)
    80001684:	01813823          	sd	s8,16(sp)
    80001688:	06b13423          	sd	a1,104(sp)
    8000168c:	06c13823          	sd	a2,112(sp)
    80001690:	06d13c23          	sd	a3,120(sp)
    80001694:	08e13023          	sd	a4,128(sp)
    80001698:	08f13423          	sd	a5,136(sp)
    8000169c:	09013823          	sd	a6,144(sp)
    800016a0:	09113c23          	sd	a7,152(sp)
    800016a4:	32050663          	beqz	a0,800019d0 <printf+0x374>
    800016a8:	00050a93          	mv	s5,a0
    800016ac:	00054503          	lbu	a0,0(a0) # 1000 <_entry_offset+0x1000>
    800016b0:	06810793          	addi	a5,sp,104
    800016b4:	00f13423          	sd	a5,8(sp)
    800016b8:	30050863          	beqz	a0,800019c8 <printf+0x36c>
    800016bc:	00000493          	li	s1,0
    800016c0:	01c00993          	li	s3,28
    800016c4:	00002917          	auipc	s2,0x2
    800016c8:	87890913          	addi	s2,s2,-1928 # 80002f3c <tests+0x934>
    800016cc:	06400a13          	li	s4,100
    800016d0:	fff00413          	li	s0,-1
    800016d4:	ff75079b          	addiw	a5,a0,-9
    800016d8:	0ff7f793          	zext.b	a5,a5
    800016dc:	001a8b13          	addi	s6,s5,1
    800016e0:	00f9ec63          	bltu	s3,a5,800016f8 <printf+0x9c>
    800016e4:	00279793          	slli	a5,a5,0x2
    800016e8:	012787b3          	add	a5,a5,s2
    800016ec:	0007a783          	lw	a5,0(a5) # 1000 <_entry_offset+0x1000>
    800016f0:	012787b3          	add	a5,a5,s2
    800016f4:	00078067          	jr	a5
    800016f8:	8d1ff0ef          	jal	ra,80000fc8 <putch>
    800016fc:	0014849b          	addiw	s1,s1,1
    80001700:	000b0a93          	mv	s5,s6
    80001704:	000ac503          	lbu	a0,0(s5)
    80001708:	fc0516e3          	bnez	a0,800016d4 <printf+0x78>
    8000170c:	0004851b          	sext.w	a0,s1
    80001710:	05813083          	ld	ra,88(sp)
    80001714:	05013403          	ld	s0,80(sp)
    80001718:	04813483          	ld	s1,72(sp)
    8000171c:	04013903          	ld	s2,64(sp)
    80001720:	03813983          	ld	s3,56(sp)
    80001724:	03013a03          	ld	s4,48(sp)
    80001728:	02813a83          	ld	s5,40(sp)
    8000172c:	02013b03          	ld	s6,32(sp)
    80001730:	01813b83          	ld	s7,24(sp)
    80001734:	01013c03          	ld	s8,16(sp)
    80001738:	0a010113          	addi	sp,sp,160
    8000173c:	00008067          	ret
    80001740:	001ac783          	lbu	a5,1(s5)
    80001744:	11478c63          	beq	a5,s4,8000185c <printf+0x200>
    80001748:	06fa6a63          	bltu	s4,a5,800017bc <printf+0x160>
    8000174c:	02500713          	li	a4,37
    80001750:	1ee78863          	beq	a5,a4,80001940 <printf+0x2e4>
    80001754:	06300713          	li	a4,99
    80001758:	0ee79863          	bne	a5,a4,80001848 <printf+0x1ec>
    8000175c:	00813783          	ld	a5,8(sp)
    80001760:	0014849b          	addiw	s1,s1,1
    80001764:	002a8a93          	addi	s5,s5,2
    80001768:	0007c503          	lbu	a0,0(a5)
    8000176c:	00878793          	addi	a5,a5,8
    80001770:	00f13423          	sd	a5,8(sp)
    80001774:	855ff0ef          	jal	ra,80000fc8 <putch>
    80001778:	f8dff06f          	j	80001704 <printf+0xa8>
    8000177c:	02000513          	li	a0,32
    80001780:	849ff0ef          	jal	ra,80000fc8 <putch>
    80001784:	0014849b          	addiw	s1,s1,1
    80001788:	f79ff06f          	j	80001700 <printf+0xa4>
    8000178c:	00d00513          	li	a0,13
    80001790:	839ff0ef          	jal	ra,80000fc8 <putch>
    80001794:	0014849b          	addiw	s1,s1,1
    80001798:	f69ff06f          	j	80001700 <printf+0xa4>
    8000179c:	00a00513          	li	a0,10
    800017a0:	829ff0ef          	jal	ra,80000fc8 <putch>
    800017a4:	0014849b          	addiw	s1,s1,1
    800017a8:	f59ff06f          	j	80001700 <printf+0xa4>
    800017ac:	00900513          	li	a0,9
    800017b0:	819ff0ef          	jal	ra,80000fc8 <putch>
    800017b4:	0044849b          	addiw	s1,s1,4
    800017b8:	f49ff06f          	j	80001700 <printf+0xa4>
    800017bc:	07300713          	li	a4,115
    800017c0:	12e78a63          	beq	a5,a4,800018f4 <printf+0x298>
    800017c4:	07800713          	li	a4,120
    800017c8:	08e79063          	bne	a5,a4,80001848 <printf+0x1ec>
    800017cc:	00813783          	ld	a5,8(sp)
    800017d0:	0007bc03          	ld	s8,0(a5)
    800017d4:	00878793          	addi	a5,a5,8
    800017d8:	00f13423          	sd	a5,8(sp)
    800017dc:	160c1c63          	bnez	s8,80001954 <printf+0x2f8>
    800017e0:	0014849b          	addiw	s1,s1,1
    800017e4:	00100b93          	li	s7,1
    800017e8:	00900b13          	li	s6,9
    800017ec:	000b8793          	mv	a5,s7
    800017f0:	fffb8b9b          	addiw	s7,s7,-1
    800017f4:	ffe7879b          	addiw	a5,a5,-2
    800017f8:	1c0b8263          	beqz	s7,800019bc <printf+0x360>
    800017fc:	00078713          	mv	a4,a5
    80001800:	00100693          	li	a3,1
    80001804:	fff7071b          	addiw	a4,a4,-1
    80001808:	00469693          	slli	a3,a3,0x4
    8000180c:	fe871ce3          	bne	a4,s0,80001804 <printf+0x1a8>
    80001810:	02dc56b3          	divu	a3,s8,a3
    80001814:	00100713          	li	a4,1
    80001818:	fff7879b          	addiw	a5,a5,-1
    8000181c:	00471713          	slli	a4,a4,0x4
    80001820:	fe879ce3          	bne	a5,s0,80001818 <printf+0x1bc>
    80001824:	02ec7c33          	remu	s8,s8,a4
    80001828:	0ff6f513          	zext.b	a0,a3
    8000182c:	16db6e63          	bltu	s6,a3,800019a8 <printf+0x34c>
    80001830:	0305051b          	addiw	a0,a0,48
    80001834:	0ff57513          	zext.b	a0,a0
    80001838:	f90ff0ef          	jal	ra,80000fc8 <putch>
    8000183c:	fa0b98e3          	bnez	s7,800017ec <printf+0x190>
    80001840:	002a8a93          	addi	s5,s5,2
    80001844:	ec1ff06f          	j	80001704 <printf+0xa8>
    80001848:	02000513          	li	a0,32
    8000184c:	f7cff0ef          	jal	ra,80000fc8 <putch>
    80001850:	0014849b          	addiw	s1,s1,1
    80001854:	000b0a93          	mv	s5,s6
    80001858:	eadff06f          	j	80001704 <printf+0xa8>
    8000185c:	00813783          	ld	a5,8(sp)
    80001860:	0007ab03          	lw	s6,0(a5)
    80001864:	00878793          	addi	a5,a5,8
    80001868:	00f13423          	sd	a5,8(sp)
    8000186c:	100b4263          	bltz	s6,80001970 <printf+0x314>
    80001870:	160b1463          	bnez	s6,800019d8 <printf+0x37c>
    80001874:	0014849b          	addiw	s1,s1,1
    80001878:	00100b93          	li	s7,1
    8000187c:	ffeb8b9b          	addiw	s7,s7,-2
    80001880:	000b869b          	sext.w	a3,s7
    80001884:	048b8e63          	beq	s7,s0,800018e0 <printf+0x284>
    80001888:	00068713          	mv	a4,a3
    8000188c:	00100793          	li	a5,1
    80001890:	00279613          	slli	a2,a5,0x2
    80001894:	00f607b3          	add	a5,a2,a5
    80001898:	fff7071b          	addiw	a4,a4,-1
    8000189c:	00179793          	slli	a5,a5,0x1
    800018a0:	fe8718e3          	bne	a4,s0,80001890 <printf+0x234>
    800018a4:	02fb57b3          	divu	a5,s6,a5
    800018a8:	00100713          	li	a4,1
    800018ac:	00271613          	slli	a2,a4,0x2
    800018b0:	00e60733          	add	a4,a2,a4
    800018b4:	fff6869b          	addiw	a3,a3,-1
    800018b8:	00171713          	slli	a4,a4,0x1
    800018bc:	fe8698e3          	bne	a3,s0,800018ac <printf+0x250>
    800018c0:	0307879b          	addiw	a5,a5,48
    800018c4:	0ff7f513          	zext.b	a0,a5
    800018c8:	fffb8b9b          	addiw	s7,s7,-1
    800018cc:	02eb7b33          	remu	s6,s6,a4
    800018d0:	ef8ff0ef          	jal	ra,80000fc8 <putch>
    800018d4:	000b869b          	sext.w	a3,s7
    800018d8:	000b0b1b          	sext.w	s6,s6
    800018dc:	fa8b96e3          	bne	s7,s0,80001888 <printf+0x22c>
    800018e0:	030b051b          	addiw	a0,s6,48
    800018e4:	0ff57513          	zext.b	a0,a0
    800018e8:	ee0ff0ef          	jal	ra,80000fc8 <putch>
    800018ec:	002a8a93          	addi	s5,s5,2
    800018f0:	e15ff06f          	j	80001704 <printf+0xa8>
    800018f4:	00813783          	ld	a5,8(sp)
    800018f8:	0007bb03          	ld	s6,0(a5)
    800018fc:	00878793          	addi	a5,a5,8
    80001900:	00f13423          	sd	a5,8(sp)
    80001904:	000b0513          	mv	a0,s6
    80001908:	0d8000ef          	jal	ra,800019e0 <strlen>
    8000190c:	00050793          	mv	a5,a0
    80001910:	000b4503          	lbu	a0,0(s6)
    80001914:	009784bb          	addw	s1,a5,s1
    80001918:	f20504e3          	beqz	a0,80001840 <printf+0x1e4>
    8000191c:	001b0b13          	addi	s6,s6,1
    80001920:	ea8ff0ef          	jal	ra,80000fc8 <putch>
    80001924:	000b4503          	lbu	a0,0(s6)
    80001928:	f0050ce3          	beqz	a0,80001840 <printf+0x1e4>
    8000192c:	001b0b13          	addi	s6,s6,1
    80001930:	e98ff0ef          	jal	ra,80000fc8 <putch>
    80001934:	000b4503          	lbu	a0,0(s6)
    80001938:	fe0512e3          	bnez	a0,8000191c <printf+0x2c0>
    8000193c:	f05ff06f          	j	80001840 <printf+0x1e4>
    80001940:	02500513          	li	a0,37
    80001944:	e84ff0ef          	jal	ra,80000fc8 <putch>
    80001948:	0014849b          	addiw	s1,s1,1
    8000194c:	002a8a93          	addi	s5,s5,2
    80001950:	db5ff06f          	j	80001704 <printf+0xa8>
    80001954:	000c0793          	mv	a5,s8
    80001958:	00000b93          	li	s7,0
    8000195c:	0047d793          	srli	a5,a5,0x4
    80001960:	001b8b9b          	addiw	s7,s7,1
    80001964:	fe079ce3          	bnez	a5,8000195c <printf+0x300>
    80001968:	009b84bb          	addw	s1,s7,s1
    8000196c:	e7dff06f          	j	800017e8 <printf+0x18c>
    80001970:	02d00513          	li	a0,45
    80001974:	41600b3b          	negw	s6,s6
    80001978:	e50ff0ef          	jal	ra,80000fc8 <putch>
    8000197c:	0014849b          	addiw	s1,s1,1
    80001980:	000b0793          	mv	a5,s6
    80001984:	00000b93          	li	s7,0
    80001988:	00a00613          	li	a2,10
    8000198c:	00900693          	li	a3,9
    80001990:	00078713          	mv	a4,a5
    80001994:	001b8b9b          	addiw	s7,s7,1
    80001998:	02c7d7b3          	divu	a5,a5,a2
    8000199c:	fee6eae3          	bltu	a3,a4,80001990 <printf+0x334>
    800019a0:	009b84bb          	addw	s1,s7,s1
    800019a4:	ed9ff06f          	j	8000187c <printf+0x220>
    800019a8:	0375051b          	addiw	a0,a0,55
    800019ac:	0ff57513          	zext.b	a0,a0
    800019b0:	e18ff0ef          	jal	ra,80000fc8 <putch>
    800019b4:	e20b9ce3          	bnez	s7,800017ec <printf+0x190>
    800019b8:	e89ff06f          	j	80001840 <printf+0x1e4>
    800019bc:	000c0693          	mv	a3,s8
    800019c0:	00000c13          	li	s8,0
    800019c4:	e65ff06f          	j	80001828 <printf+0x1cc>
    800019c8:	00000513          	li	a0,0
    800019cc:	d45ff06f          	j	80001710 <printf+0xb4>
    800019d0:	fff00513          	li	a0,-1
    800019d4:	d3dff06f          	j	80001710 <printf+0xb4>
    800019d8:	000b0793          	mv	a5,s6
    800019dc:	fa9ff06f          	j	80001984 <printf+0x328>

00000000800019e0 <strlen>:
    800019e0:	02050663          	beqz	a0,80001a0c <strlen+0x2c>
    800019e4:	00054783          	lbu	a5,0(a0)
    800019e8:	00050713          	mv	a4,a0
    800019ec:	00000513          	li	a0,0
    800019f0:	00078c63          	beqz	a5,80001a08 <strlen+0x28>
    800019f4:	00150513          	addi	a0,a0,1
    800019f8:	00a707b3          	add	a5,a4,a0
    800019fc:	0007c783          	lbu	a5,0(a5)
    80001a00:	fe079ae3          	bnez	a5,800019f4 <strlen+0x14>
    80001a04:	00008067          	ret
    80001a08:	00008067          	ret
    80001a0c:	ff010113          	addi	sp,sp,-16
    80001a10:	00800613          	li	a2,8
    80001a14:	00001597          	auipc	a1,0x1
    80001a18:	59c58593          	addi	a1,a1,1436 # 80002fb0 <tests+0x9a8>
    80001a1c:	00001517          	auipc	a0,0x1
    80001a20:	94c50513          	addi	a0,a0,-1716 # 80002368 <names+0x3e0>
    80001a24:	00113423          	sd	ra,8(sp)
    80001a28:	c35ff0ef          	jal	ra,8000165c <printf>
    80001a2c:	00100513          	li	a0,1
    80001a30:	da8ff0ef          	jal	ra,80000fd8 <halt>

0000000080001a34 <strcmp>:
    80001a34:	04050a63          	beqz	a0,80001a88 <strcmp+0x54>
    80001a38:	04058863          	beqz	a1,80001a88 <strcmp+0x54>
    80001a3c:	00054683          	lbu	a3,0(a0)
    80001a40:	00050713          	mv	a4,a0
    80001a44:	0005c503          	lbu	a0,0(a1)
    80001a48:	40a6853b          	subw	a0,a3,a0
    80001a4c:	00050793          	mv	a5,a0
    80001a50:	02051063          	bnez	a0,80001a70 <strcmp+0x3c>
    80001a54:	02068863          	beqz	a3,80001a84 <strcmp+0x50>
    80001a58:	00174683          	lbu	a3,1(a4)
    80001a5c:	0015c783          	lbu	a5,1(a1)
    80001a60:	00170713          	addi	a4,a4,1
    80001a64:	00158593          	addi	a1,a1,1
    80001a68:	40f687bb          	subw	a5,a3,a5
    80001a6c:	fe0784e3          	beqz	a5,80001a54 <strcmp+0x20>
    80001a70:	fff00513          	li	a0,-1
    80001a74:	0007d463          	bgez	a5,80001a7c <strcmp+0x48>
    80001a78:	00008067          	ret
    80001a7c:	00f03533          	snez	a0,a5
    80001a80:	00008067          	ret
    80001a84:	00008067          	ret
    80001a88:	ff010113          	addi	sp,sp,-16
    80001a8c:	03500613          	li	a2,53
    80001a90:	00001597          	auipc	a1,0x1
    80001a94:	52058593          	addi	a1,a1,1312 # 80002fb0 <tests+0x9a8>
    80001a98:	00001517          	auipc	a0,0x1
    80001a9c:	8d050513          	addi	a0,a0,-1840 # 80002368 <names+0x3e0>
    80001aa0:	00113423          	sd	ra,8(sp)
    80001aa4:	bb9ff0ef          	jal	ra,8000165c <printf>
    80001aa8:	00100513          	li	a0,1
    80001aac:	d2cff0ef          	jal	ra,80000fd8 <halt>

0000000080001ab0 <strncmp>:
    80001ab0:	06050a63          	beqz	a0,80001b24 <strncmp+0x74>
    80001ab4:	06058863          	beqz	a1,80001b24 <strncmp+0x74>
    80001ab8:	00050713          	mv	a4,a0
    80001abc:	00000513          	li	a0,0
    80001ac0:	04060063          	beqz	a2,80001b00 <strncmp+0x50>
    80001ac4:	fff60613          	addi	a2,a2,-1 # fff <_entry_offset+0xfff>
    80001ac8:	00070793          	mv	a5,a4
    80001acc:	00c70833          	add	a6,a4,a2
    80001ad0:	02061063          	bnez	a2,80001af0 <strncmp+0x40>
    80001ad4:	0400006f          	j	80001b14 <strncmp+0x64>
    80001ad8:	02e51263          	bne	a0,a4,80001afc <strncmp+0x4c>
    80001adc:	00178713          	addi	a4,a5,1
    80001ae0:	00158693          	addi	a3,a1,1
    80001ae4:	03070063          	beq	a4,a6,80001b04 <strncmp+0x54>
    80001ae8:	00068593          	mv	a1,a3
    80001aec:	00070793          	mv	a5,a4
    80001af0:	0007c503          	lbu	a0,0(a5)
    80001af4:	0005c703          	lbu	a4,0(a1)
    80001af8:	fe0510e3          	bnez	a0,80001ad8 <strncmp+0x28>
    80001afc:	40e5053b          	subw	a0,a0,a4
    80001b00:	00008067          	ret
    80001b04:	0017c503          	lbu	a0,1(a5)
    80001b08:	0015c703          	lbu	a4,1(a1)
    80001b0c:	40e5053b          	subw	a0,a0,a4
    80001b10:	ff1ff06f          	j	80001b00 <strncmp+0x50>
    80001b14:	00074503          	lbu	a0,0(a4)
    80001b18:	0005c703          	lbu	a4,0(a1)
    80001b1c:	40e5053b          	subw	a0,a0,a4
    80001b20:	fe1ff06f          	j	80001b00 <strncmp+0x50>
    80001b24:	ff010113          	addi	sp,sp,-16
    80001b28:	04500613          	li	a2,69
    80001b2c:	00001597          	auipc	a1,0x1
    80001b30:	48458593          	addi	a1,a1,1156 # 80002fb0 <tests+0x9a8>
    80001b34:	00001517          	auipc	a0,0x1
    80001b38:	83450513          	addi	a0,a0,-1996 # 80002368 <names+0x3e0>
    80001b3c:	00113423          	sd	ra,8(sp)
    80001b40:	b1dff0ef          	jal	ra,8000165c <printf>
    80001b44:	00100513          	li	a0,1
    80001b48:	c90ff0ef          	jal	ra,80000fd8 <halt>

0000000080001b4c <memcpy>:
    80001b4c:	02050863          	beqz	a0,80001b7c <memcpy+0x30>
    80001b50:	02058463          	beqz	a1,80001b78 <memcpy+0x2c>
    80001b54:	00c506b3          	add	a3,a0,a2
    80001b58:	00050793          	mv	a5,a0
    80001b5c:	02060063          	beqz	a2,80001b7c <memcpy+0x30>
    80001b60:	0005c703          	lbu	a4,0(a1)
    80001b64:	00178793          	addi	a5,a5,1
    80001b68:	00158593          	addi	a1,a1,1
    80001b6c:	fee78fa3          	sb	a4,-1(a5)
    80001b70:	fef698e3          	bne	a3,a5,80001b60 <memcpy+0x14>
    80001b74:	00008067          	ret
    80001b78:	00000513          	li	a0,0
    80001b7c:	00008067          	ret
